(lp0
(imatch
Match
p1
(dp2
S'data'
p3
(lp4
F39.0
aI1
aI-1
aF43.0
aI-1
aI1
aI0
aF0.9218516297297058
asS'match'
p5
I0
sba(imatch
Match
p6
(dp7
g3
(lp8
F23.0
aI-1
aI-1
aF30.0
aI-1
aI-1
aI0
aF1.7131655241992418
asg5
I1
sba(imatch
Match
p9
(dp10
g3
(lp11
F50.0
aI-1
aI-1
aF49.0
aI1
aI1
aI2
aF1.5493330473168725
asg5
I0
sba(imatch
Match
p12
(dp13
g3
(lp14
F46.0
aI-1
aI1
aF19.0
aI-1
aI-1
aI0
aF1.3525581031895917
asg5
I0
sba(imatch
Match
p15
(dp16
g3
(lp17
F36.0
aI1
aI1
aF29.0
aI-1
aI1
aI1
aF1.3960439584016644
asg5
I1
sba(imatch
Match
p18
(dp19
g3
(lp20
F27.0
aI-1
aI-1
aF19.0
aI1
aI1
aI0
aF1.9328570399526117
asg5
I0
sba(imatch
Match
p21
(dp22
g3
(lp23
F36.0
aI-1
aI-1
aF25.0
aI-1
aI1
aI0
aF2.316725801725055
asg5
I0
sba(imatch
Match
p24
(dp25
g3
(lp26
F41.0
aI1
aI1
aF23.0
aI1
aI-1
aI1
aF2.5151881688077404
asg5
I0
sba(imatch
Match
p27
(dp28
g3
(lp29
F21.0
aI-1
aI-1
aF18.0
aI1
aI-1
aI2
aF1.3221004508586267
asg5
I1
sba(imatch
Match
p30
(dp31
g3
(lp32
F39.0
aI-1
aI1
aF21.0
aI-1
aI-1
aI1
aF1.628832103292878
asg5
I0
sba(imatch
Match
p33
(dp34
g3
(lp35
F24.0
aI-1
aI-1
aF41.0
aI-1
aI1
aI0
aF0.6293883082720465
asg5
I0
sba(imatch
Match
p36
(dp37
g3
(lp38
F34.0
aI1
aI1
aF33.0
aI-1
aI1
aI0
aF2.82420991612131
asg5
I1
sba(imatch
Match
p39
(dp40
g3
(lp41
F18.0
aI-1
aI-1
aF47.0
aI-1
aI1
aI0
aF2.7181798237922883
asg5
I0
sba(imatch
Match
p42
(dp43
g3
(lp44
F39.0
aI-1
aI1
aF20.0
aI-1
aI-1
aI0
aF4.110051385681378
asg5
I0
sba(imatch
Match
p45
(dp46
g3
(lp47
F43.0
aI-1
aI1
aF35.0
aI-1
aI1
aI0
aF1.770405545588254
asg5
I1
sba(imatch
Match
p48
(dp49
g3
(lp50
F30.0
aI-1
aI-1
aF31.0
aI1
aI1
aI0
aF5.997751885661548
asg5
I0
sba(imatch
Match
p51
(dp52
g3
(lp53
F35.0
aI-1
aI-1
aF32.0
aI-1
aI1
aI1
aF0.18404804391500368
asg5
I0
sba(imatch
Match
p54
(dp55
g3
(lp56
F27.0
aI1
aI1
aF44.0
aI-1
aI-1
aI2
aF0.0
asg5
I0
sba(imatch
Match
p57
(dp58
g3
(lp59
F30.0
aI-1
aI-1
aF43.0
aI-1
aI-1
aI1
aF6.894110067337682
asg5
I1
sba(imatch
Match
p60
(dp61
g3
(lp62
F33.0
aI-1
aI1
aF50.0
aI-1
aI1
aI1
aF1.9451434752055037
asg5
I1
sba(imatch
Match
p63
(dp64
g3
(lp65
F24.0
aI-1
aI1
aF38.0
aI-1
aI-1
aI1
aF1.4678724913676064
asg5
I0
sba(imatch
Match
p66
(dp67
g3
(lp68
F49.0
aI-1
aI1
aF49.0
aI-1
aI-1
aI3
aF1.1107797673809194
asg5
I1
sba(imatch
Match
p69
(dp70
g3
(lp71
F34.0
aI-1
aI-1
aF28.0
aI-1
aI1
aI0
aF0.11317892073083502
asg5
I0
sba(imatch
Match
p72
(dp73
g3
(lp74
F38.0
aI-1
aI1
aF25.0
aI-1
aI-1
aI0
aF2.551798686793495
asg5
I0
sba(imatch
Match
p75
(dp76
g3
(lp77
F50.0
aI-1
aI-1
aF34.0
aI-1
aI1
aI3
aF0.0
asg5
I1
sba(imatch
Match
p78
(dp79
g3
(lp80
F29.0
aI-1
aI-1
aF45.0
aI-1
aI1
aI2
aF0.4017257509128084
asg5
I0
sba(imatch
Match
p81
(dp82
g3
(lp83
F43.0
aI-1
aI1
aF20.0
aI-1
aI-1
aI0
aF2.8546419654585056
asg5
I0
sba(imatch
Match
p84
(dp85
g3
(lp86
F41.0
aI-1
aI-1
aF34.0
aI-1
aI-1
aI0
aF0.23543303655998785
asg5
I1
sba(imatch
Match
p87
(dp88
g3
(lp89
F48.0
aI1
aI1
aF45.0
aI-1
aI1
aI0
aF5.686848862378443
asg5
I1
sba(imatch
Match
p90
(dp91
g3
(lp92
F39.0
aI-1
aI-1
aF33.0
aI-1
aI1
aI0
aF0.9743683599583565
asg5
I0
sba(imatch
Match
p93
(dp94
g3
(lp95
F31.0
aI-1
aI1
aF32.0
aI1
aI-1
aI2
aF3.560743475973152
asg5
I0
sba(imatch
Match
p96
(dp97
g3
(lp98
F33.0
aI-1
aI1
aF46.0
aI1
aI-1
aI1
aF1.770405545588254
asg5
I0
sba(imatch
Match
p99
(dp100
g3
(lp101
F25.0
aI-1
aI-1
aF28.0
aI-1
aI-1
aI1
aF7.983255774125976
asg5
I1
sba(imatch
Match
p102
(dp103
g3
(lp104
F47.0
aI1
aI1
aF19.0
aI-1
aI-1
aI0
aF1.286087608799567
asg5
I0
sba(imatch
Match
p105
(dp106
g3
(lp107
F18.0
aI-1
aI-1
aF23.0
aI-1
aI1
aI0
aF1.8784958720916762
asg5
I0
sba(imatch
Match
p108
(dp109
g3
(lp110
F20.0
aI-1
aI1
aF26.0
aI-1
aI-1
aI3
aF1.815248320630139
asg5
I0
sba(imatch
Match
p111
(dp112
g3
(lp113
F24.0
aI-1
aI1
aF49.0
aI-1
aI1
aI1
aF1.5446632880755342
asg5
I0
sba(imatch
Match
p114
(dp115
g3
(lp116
F28.0
aI-1
aI1
aF45.0
aI-1
aI-1
aI0
aF0.9558872282795418
asg5
I0
sba(imatch
Match
p117
(dp118
g3
(lp119
F39.0
aI-1
aI1
aF45.0
aI-1
aI-1
aI0
aF1.5859820550038557
asg5
I0
sba(imatch
Match
p120
(dp121
g3
(lp122
F27.0
aI-1
aI-1
aF41.0
aI-1
aI1
aI0
aF0.0
asg5
I0
sba(imatch
Match
p123
(dp124
g3
(lp125
F32.0
aI1
aI-1
aF31.0
aI-1
aI-1
aI1
aF1.6022837374667385
asg5
I1
sba(imatch
Match
p126
(dp127
g3
(lp128
F47.0
aI-1
aI-1
aF37.0
aI-1
aI-1
aI0
aF1.432212477216966
asg5
I1
sba(imatch
Match
p129
(dp130
g3
(lp131
F28.0
aI-1
aI-1
aF41.0
aI-1
aI1
aI2
aF0.5521695876388769
asg5
I0
sba(imatch
Match
p132
(dp133
g3
(lp134
F34.0
aI-1
aI-1
aF19.0
aI-1
aI1
aI2
aF5.5884345266743365
asg5
I0
sba(imatch
Match
p135
(dp136
g3
(lp137
F39.0
aI1
aI1
aF45.0
aI-1
aI1
aI2
aF2.3980611291370977
asg5
I1
sba(imatch
Match
p138
(dp139
g3
(lp140
F25.0
aI-1
aI-1
aF28.0
aI-1
aI-1
aI1
aF1.4626678789312944
asg5
I1
sba(imatch
Match
p141
(dp142
g3
(lp143
F47.0
aI-1
aI1
aF29.0
aI-1
aI-1
aI1
aF3.835270867967259
asg5
I0
sba(imatch
Match
p144
(dp145
g3
(lp146
F30.0
aI-1
aI1
aF48.0
aI-1
aI1
aI0
aF3.1792731493221478
asg5
I1
sba(imatch
Match
p147
(dp148
g3
(lp149
F48.0
aI-1
aI1
aF35.0
aI-1
aI-1
aI2
aF2.017450242449705
asg5
I0
sba(imatch
Match
p150
(dp151
g3
(lp152
F24.0
aI-1
aI1
aF44.0
aI-1
aI1
aI0
aF0.6208543408147018
asg5
I0
sba(imatch
Match
p153
(dp154
g3
(lp155
F32.0
aI-1
aI-1
aF50.0
aI-1
aI-1
aI0
aF2.465124818909897
asg5
I1
sba(imatch
Match
p156
(dp157
g3
(lp158
F47.0
aI-1
aI-1
aF19.0
aI1
aI1
aI2
aF4.505705358840988
asg5
I0
sba(imatch
Match
p159
(dp160
g3
(lp161
F27.0
aI-1
aI-1
aF24.0
aI-1
aI-1
aI0
aF0.9558872282795418
asg5
I1
sba(imatch
Match
p162
(dp163
g3
(lp164
F18.0
aI1
aI-1
aF34.0
aI-1
aI-1
aI1
aF3.605902837760421
asg5
I0
sba(imatch
Match
p165
(dp166
g3
(lp167
F26.0
aI-1
aI1
aF46.0
aI1
aI1
aI0
aF1.2338344299443595
asg5
I0
sba(imatch
Match
p168
(dp169
g3
(lp170
F49.0
aI-1
aI-1
aF40.0
aI-1
aI1
aI0
aF0.7993511164009628
asg5
I0
sba(imatch
Match
p171
(dp172
g3
(lp173
F32.0
aI-1
aI-1
aF36.0
aI-1
aI-1
aI0
aF1.660663010849644
asg5
I1
sba(imatch
Match
p174
(dp175
g3
(lp176
F27.0
aI-1
aI-1
aF36.0
aI1
aI1
aI3
aF0.992318592508459
asg5
I1
sba(imatch
Match
p177
(dp178
g3
(lp179
F42.0
aI-1
aI1
aF35.0
aI-1
aI-1
aI1
aF1.6268916022394522
asg5
I0
sba(imatch
Match
p180
(dp181
g3
(lp182
F49.0
aI1
aI1
aF26.0
aI-1
aI-1
aI1
aF1.5676239578936797
asg5
I0
sba(imatch
Match
p183
(dp184
g3
(lp185
F36.0
aI-1
aI1
aF18.0
aI-1
aI1
aI0
aF2.1611424859428947
asg5
I1
sba(imatch
Match
p186
(dp187
g3
(lp188
F20.0
aI-1
aI1
aF32.0
aI-1
aI1
aI0
aF1.8319223452032323
asg5
I0
sba(imatch
Match
p189
(dp190
g3
(lp191
F36.0
aI-1
aI1
aF22.0
aI-1
aI-1
aI1
aF0.5120285728657493
asg5
I0
sba(imatch
Match
p192
(dp193
g3
(lp194
F35.0
aI-1
aI1
aF41.0
aI-1
aI-1
aI1
aF3.9192674656252993
asg5
I0
sba(imatch
Match
p195
(dp196
g3
(lp197
F41.0
aI-1
aI-1
aF20.0
aI1
aI-1
aI1
aF1.22729786739847
asg5
I1
sba(imatch
Match
p198
(dp199
g3
(lp200
F24.0
aI1
aI-1
aF21.0
aI-1
aI-1
aI1
aF1.521829904184516
asg5
I1
sba(imatch
Match
p201
(dp202
g3
(lp203
F18.0
aI-1
aI1
aF47.0
aI1
aI1
aI2
aF1.9143332817210008
asg5
I0
sba(imatch
Match
p204
(dp205
g3
(lp206
F32.0
aI-1
aI-1
aF26.0
aI-1
aI1
aI0
aF4.254735753405682
asg5
I0
sba(imatch
Match
p207
(dp208
g3
(lp209
F21.0
aI1
aI1
aF19.0
aI1
aI1
aI0
aF1.7973061607200205
asg5
I1
sba(imatch
Match
p210
(dp211
g3
(lp212
F49.0
aI-1
aI1
aF35.0
aI-1
aI-1
aI0
aF1.4685618851974085
asg5
I0
sba(imatch
Match
p213
(dp214
g3
(lp215
F41.0
aI1
aI1
aF44.0
aI-1
aI1
aI1
aF1.8337602454408737
asg5
I1
sba(imatch
Match
p216
(dp217
g3
(lp218
F40.0
aI-1
aI1
aF30.0
aI-1
aI1
aI0
aF1.4908207646861422
asg5
I1
sba(imatch
Match
p219
(dp220
g3
(lp221
F32.0
aI1
aI-1
aF29.0
aI-1
aI1
aI0
aF2.0305883337407424
asg5
I0
sba(imatch
Match
p222
(dp223
g3
(lp224
F48.0
aI-1
aI1
aF29.0
aI-1
aI-1
aI1
aF0.0
asg5
I0
sba(imatch
Match
p225
(dp226
g3
(lp227
F50.0
aI-1
aI-1
aF19.0
aI-1
aI1
aI0
aF0.8057928893956473
asg5
I0
sba(imatch
Match
p228
(dp229
g3
(lp230
F48.0
aI-1
aI-1
aF33.0
aI1
aI-1
aI1
aF1.298143001348759
asg5
I1
sba(imatch
Match
p231
(dp232
g3
(lp233
F50.0
aI-1
aI-1
aF45.0
aI-1
aI-1
aI0
aF0.5918599105838427
asg5
I1
sba(imatch
Match
p234
(dp235
g3
(lp236
F22.0
aI-1
aI1
aF24.0
aI-1
aI-1
aI0
aF1.2403629011823385
asg5
I0
sba(imatch
Match
p237
(dp238
g3
(lp239
F41.0
aI-1
aI-1
aF31.0
aI-1
aI-1
aI0
aF2.253709711310622
asg5
I1
sba(imatch
Match
p240
(dp241
g3
(lp242
F49.0
aI-1
aI-1
aF27.0
aI1
aI1
aI0
aF1.5364572783253896
asg5
I0
sba(imatch
Match
p243
(dp244
g3
(lp245
F28.0
aI-1
aI1
aF47.0
aI-1
aI-1
aI1
aF4.279783987741114
asg5
I0
sba(imatch
Match
p246
(dp247
g3
(lp248
F19.0
aI1
aI-1
aF34.0
aI-1
aI-1
aI3
aF2.879157385963264
asg5
I0
sba(imatch
Match
p249
(dp250
g3
(lp251
F26.0
aI-1
aI1
aF33.0
aI-1
aI1
aI1
aF6.258601702482364
asg5
I1
sba(imatch
Match
p252
(dp253
g3
(lp254
F28.0
aI-1
aI1
aF26.0
aI-1
aI1
aI1
aF0.3697089438517662
asg5
I1
sba(imatch
Match
p255
(dp256
g3
(lp257
F21.0
aI-1
aI-1
aF30.0
aI-1
aI1
aI2
aF3.1792731493221478
asg5
I0
sba(imatch
Match
p258
(dp259
g3
(lp260
F50.0
aI-1
aI1
aF21.0
aI-1
aI-1
aI0
aF1.3535696196810463
asg5
I0
sba(imatch
Match
p261
(dp262
g3
(lp263
F42.0
aI-1
aI1
aF48.0
aI-1
aI1
aI1
aF1.2101449067499668
asg5
I1
sba(imatch
Match
p264
(dp265
g3
(lp266
F27.0
aI-1
aI-1
aF24.0
aI1
aI1
aI0
aF5.636651903521867
asg5
I0
sba(imatch
Match
p267
(dp268
g3
(lp269
F18.0
aI-1
aI1
aF22.0
aI1
aI1
aI1
aF0.8057928893956473
asg5
I0
sba(imatch
Match
p270
(dp271
g3
(lp272
F21.0
aI-1
aI1
aF40.0
aI-1
aI1
aI0
aF1.5790635758806515
asg5
I0
sba(imatch
Match
p273
(dp274
g3
(lp275
F28.0
aI-1
aI-1
aF18.0
aI-1
aI-1
aI1
aF0.6489265795108422
asg5
I1
sba(imatch
Match
p276
(dp277
g3
(lp278
F27.0
aI-1
aI-1
aF21.0
aI1
aI1
aI2
aF0.2598148823957895
asg5
I0
sba(imatch
Match
p279
(dp280
g3
(lp281
F37.0
aI1
aI1
aF42.0
aI-1
aI1
aI1
aF2.253709711310622
asg5
I1
sba(imatch
Match
p282
(dp283
g3
(lp284
F26.0
aI1
aI-1
aF35.0
aI-1
aI-1
aI0
aF1.3848735083782162
asg5
I1
sba(imatch
Match
p285
(dp286
g3
(lp287
F31.0
aI-1
aI-1
aF29.0
aI-1
aI-1
aI1
aF0.8222554918890833
asg5
I1
sba(imatch
Match
p288
(dp289
g3
(lp290
F20.0
aI1
aI1
aF31.0
aI-1
aI-1
aI0
aF5.686848862378443
asg5
I0
sba(imatch
Match
p291
(dp292
g3
(lp293
F34.0
aI-1
aI-1
aF34.0
aI-1
aI1
aI0
aF1.215557342393806
asg5
I0
sba(imatch
Match
p294
(dp295
g3
(lp296
F47.0
aI-1
aI1
aF38.0
aI-1
aI1
aI1
aF0.21779277167976066
asg5
I1
sba(imatch
Match
p297
(dp298
g3
(lp299
F36.0
aI-1
aI1
aF35.0
aI-1
aI1
aI0
aF1.866422511608446
asg5
I1
sba(imatch
Match
p300
(dp301
g3
(lp302
F30.0
aI-1
aI-1
aF21.0
aI-1
aI-1
aI0
aF1.8337602454408737
asg5
I1
sba(imatch
Match
p303
(dp304
g3
(lp305
F27.0
aI-1
aI-1
aF19.0
aI-1
aI1
aI1
aF0.7628589516891262
asg5
I0
sba(imatch
Match
p306
(dp307
g3
(lp308
F37.0
aI-1
aI1
aF33.0
aI1
aI-1
aI0
aF1.1058011484898824
asg5
I0
sba(imatch
Match
p309
(dp310
g3
(lp311
F31.0
aI-1
aI1
aF35.0
aI-1
aI1
aI0
aF0.6727245767823996
asg5
I1
sba(imatch
Match
p312
(dp313
g3
(lp314
F37.0
aI-1
aI1
aF43.0
aI1
aI1
aI0
aF2.729920394854256
asg5
I1
sba(imatch
Match
p315
(dp316
g3
(lp317
F23.0
aI-1
aI-1
aF39.0
aI-1
aI-1
aI0
aF7.22773454436492
asg5
I0
sba(imatch
Match
p318
(dp319
g3
(lp320
F19.0
aI-1
aI1
aF32.0
aI-1
aI-1
aI0
aF2.879157385963264
asg5
I0
sba(imatch
Match
p321
(dp322
g3
(lp323
F22.0
aI-1
aI1
aF28.0
aI-1
aI-1
aI1
aF0.7628589516891262
asg5
I0
sba(imatch
Match
p324
(dp325
g3
(lp326
F44.0
aI-1
aI1
aF20.0
aI-1
aI1
aI1
aF1.559510406521691
asg5
I0
sba(imatch
Match
p327
(dp328
g3
(lp329
F48.0
aI-1
aI1
aF23.0
aI-1
aI1
aI2
aF1.1400348331817627
asg5
I0
sba(imatch
Match
p330
(dp331
g3
(lp332
F31.0
aI-1
aI1
aF27.0
aI-1
aI-1
aI0
aF2.3943818849232024
asg5
I0
sba(imatch
Match
p333
(dp334
g3
(lp335
F26.0
aI1
aI1
aF30.0
aI-1
aI-1
aI1
aF9.411004358071976
asg5
I0
sba(imatch
Match
p336
(dp337
g3
(lp338
F45.0
aI-1
aI-1
aF42.0
aI-1
aI1
aI1
aF3.9192674656252993
asg5
I0
sba(imatch
Match
p339
(dp340
g3
(lp341
F37.0
aI-1
aI1
aF45.0
aI1
aI-1
aI0
aF0.5918599105838427
asg5
I0
sba(imatch
Match
p342
(dp343
g3
(lp344
F47.0
aI-1
aI-1
aF47.0
aI-1
aI-1
aI1
aF1.8574032036968784
asg5
I1
sba(imatch
Match
p345
(dp346
g3
(lp347
F47.0
aI-1
aI-1
aF30.0
aI-1
aI1
aI1
aF2.889949821819865
asg5
I0
sba(imatch
Match
p348
(dp349
g3
(lp350
F19.0
aI-1
aI-1
aF34.0
aI1
aI-1
aI1
aF0.4017257509128084
asg5
I0
sba(imatch
Match
p351
(dp352
g3
(lp353
F35.0
aI-1
aI-1
aF30.0
aI-1
aI1
aI1
aF0.3308101842374436
asg5
I0
sba(imatch
Match
p354
(dp355
g3
(lp356
F44.0
aI1
aI-1
aF34.0
aI-1
aI-1
aI1
aF5.663608116293316
asg5
I1
sba(imatch
Match
p357
(dp358
g3
(lp359
F41.0
aI-1
aI1
aF32.0
aI1
aI1
aI0
aF1.5531312550325098
asg5
I1
sba(imatch
Match
p360
(dp361
g3
(lp362
F26.0
aI-1
aI-1
aF37.0
aI1
aI1
aI0
aF1.3960439584016644
asg5
I0
sba(imatch
Match
p363
(dp364
g3
(lp365
F28.0
aI-1
aI1
aF50.0
aI1
aI-1
aI0
aF2.879157385963264
asg5
I0
sba(imatch
Match
p366
(dp367
g3
(lp368
F47.0
aI-1
aI1
aF48.0
aI-1
aI-1
aI1
aF3.747640824036808
asg5
I0
sba(imatch
Match
p369
(dp370
g3
(lp371
F38.0
aI-1
aI1
aF32.0
aI-1
aI-1
aI0
aF0.5456014069601883
asg5
I0
sba(imatch
Match
p372
(dp373
g3
(lp374
F41.0
aI-1
aI-1
aF26.0
aI-1
aI-1
aI1
aF1.0217548159868182
asg5
I1
sba(imatch
Match
p375
(dp376
g3
(lp377
F49.0
aI-1
aI1
aF50.0
aI1
aI1
aI2
aF7.4161017531020175
asg5
I1
sba(imatch
Match
p378
(dp379
g3
(lp380
F19.0
aI-1
aI-1
aF28.0
aI1
aI-1
aI1
aF1.5441600810930824
asg5
I0
sba(imatch
Match
p381
(dp382
g3
(lp383
F30.0
aI1
aI-1
aF23.0
aI-1
aI-1
aI1
aF0.7819704987921081
asg5
I1
sba(imatch
Match
p384
(dp385
g3
(lp386
F34.0
aI-1
aI1
aF40.0
aI-1
aI1
aI1
aF1.7720637883824077
asg5
I1
sba(imatch
Match
p387
(dp388
g3
(lp389
F43.0
aI-1
aI-1
aF23.0
aI-1
aI-1
aI0
aF1.3719661953114393
asg5
I0
sba(imatch
Match
p390
(dp391
g3
(lp392
F19.0
aI-1
aI-1
aF34.0
aI1
aI-1
aI1
aF4.110051385681378
asg5
I0
sba(imatch
Match
p393
(dp394
g3
(lp395
F48.0
aI-1
aI1
aF48.0
aI1
aI1
aI1
aF5.514312928745987
asg5
I1
sba(imatch
Match
p396
(dp397
g3
(lp398
F36.0
aI-1
aI1
aF41.0
aI-1
aI-1
aI0
aF0.7628589516891262
asg5
I0
sba(imatch
Match
p399
(dp400
g3
(lp401
F48.0
aI-1
aI-1
aF31.0
aI1
aI-1
aI1
aF1.5182749576327828
asg5
I1
sba(imatch
Match
p402
(dp403
g3
(lp404
F31.0
aI-1
aI-1
aF44.0
aI-1
aI1
aI1
aF0.558394817116306
asg5
I0
sba(imatch
Match
p405
(dp406
g3
(lp407
F23.0
aI-1
aI1
aF27.0
aI-1
aI1
aI0
aF0.8057928893956473
asg5
I1
sba(imatch
Match
p408
(dp409
g3
(lp410
F48.0
aI-1
aI1
aF22.0
aI1
aI1
aI1
aF2.82420991612131
asg5
I0
sba(imatch
Match
p411
(dp412
g3
(lp413
F41.0
aI-1
aI-1
aF38.0
aI-1
aI-1
aI1
aF0.0
asg5
I1
sba(imatch
Match
p414
(dp415
g3
(lp416
F40.0
aI-1
aI-1
aF37.0
aI1
aI1
aI1
aF0.9592559771487028
asg5
I0
sba(imatch
Match
p417
(dp418
g3
(lp419
F47.0
aI-1
aI1
aF47.0
aI-1
aI-1
aI1
aF1.3535696196810463
asg5
I0
sba(imatch
Match
p420
(dp421
g3
(lp422
F18.0
aI1
aI1
aF33.0
aI-1
aI1
aI2
aF0.92886622631406
asg5
I0
sba(imatch
Match
p423
(dp424
g3
(lp425
F34.0
aI1
aI-1
aF26.0
aI1
aI-1
aI0
aF0.24183357836002659
asg5
I1
sba(imatch
Match
p426
(dp427
g3
(lp428
F26.0
aI-1
aI-1
aF21.0
aI-1
aI1
aI3
aF1.166987691757789
asg5
I1
sba(imatch
Match
p429
(dp430
g3
(lp431
F33.0
aI-1
aI-1
aF19.0
aI-1
aI1
aI1
aF1.5859820550038557
asg5
I0
sba(imatch
Match
p432
(dp433
g3
(lp434
F45.0
aI-1
aI-1
aF47.0
aI-1
aI1
aI0
aF3.1148525461945518
asg5
I0
sba(imatch
Match
p435
(dp436
g3
(lp437
F34.0
aI-1
aI-1
aF21.0
aI-1
aI-1
aI1
aF0.3752926906223539
asg5
I1
sba(imatch
Match
p438
(dp439
g3
(lp440
F18.0
aI-1
aI-1
aF47.0
aI-1
aI-1
aI0
aF2.908725394760188
asg5
I0
sba(imatch
Match
p441
(dp442
g3
(lp443
F49.0
aI-1
aI-1
aF46.0
aI-1
aI-1
aI0
aF1.1325458237019221
asg5
I1
sba(imatch
Match
p444
(dp445
g3
(lp446
F24.0
aI-1
aI-1
aF28.0
aI-1
aI1
aI0
aF1.412194034935347
asg5
I0
sba(imatch
Match
p447
(dp448
g3
(lp449
F20.0
aI-1
aI-1
aF36.0
aI-1
aI-1
aI2
aF2.0805848664505806
asg5
I0
sba(imatch
Match
p450
(dp451
g3
(lp452
F34.0
aI-1
aI1
aF19.0
aI1
aI1
aI3
aF0.6077743192406693
asg5
I1
sba(imatch
Match
p453
(dp454
g3
(lp455
F26.0
aI-1
aI-1
aF22.0
aI-1
aI1
aI0
aF1.2403629011823385
asg5
I0
sba(imatch
Match
p456
(dp457
g3
(lp458
F27.0
aI-1
aI-1
aF34.0
aI-1
aI1
aI1
aF0.7323646828129101
asg5
I0
sba(imatch
Match
p459
(dp460
g3
(lp461
F39.0
aI-1
aI-1
aF36.0
aI-1
aI-1
aI4
aF0.0
asg5
I1
sba(imatch
Match
p462
(dp463
g3
(lp464
F48.0
aI1
aI1
aF35.0
aI-1
aI-1
aI1
aF1.0217548159868182
asg5
I0
sba(imatch
Match
p465
(dp466
g3
(lp467
F20.0
aI1
aI1
aF35.0
aI-1
aI1
aI1
aF0.34345204518704725
asg5
I0
sba(imatch
Match
p468
(dp469
g3
(lp470
F24.0
aI-1
aI-1
aF34.0
aI-1
aI1
aI1
aF2.0420370104345706
asg5
I0
sba(imatch
Match
p471
(dp472
g3
(lp473
F26.0
aI-1
aI1
aF24.0
aI-1
aI1
aI0
aF1.5824026396996844
asg5
I1
sba(imatch
Match
p474
(dp475
g3
(lp476
F48.0
aI-1
aI-1
aF25.0
aI-1
aI1
aI2
aF1.8784958720916762
asg5
I0
sba(imatch
Match
p477
(dp478
g3
(lp479
F32.0
aI-1
aI1
aF36.0
aI-1
aI1
aI4
aF0.21779277167976066
asg5
I1
sba(imatch
Match
p480
(dp481
g3
(lp482
F34.0
aI-1
aI-1
aF33.0
aI-1
aI-1
aI0
aF0.28839933616523733
asg5
I1
sba(imatch
Match
p483
(dp484
g3
(lp485
F31.0
aI-1
aI-1
aF28.0
aI-1
aI1
aI1
aF7.983255774125976
asg5
I0
sba(imatch
Match
p486
(dp487
g3
(lp488
F44.0
aI-1
aI1
aF33.0
aI-1
aI-1
aI1
aF4.254735753405682
asg5
I0
sba(imatch
Match
p489
(dp490
g3
(lp491
F22.0
aI-1
aI-1
aF32.0
aI-1
aI-1
aI1
aF3.1792731493221478
asg5
I0
sba(imatch
Match
p492
(dp493
g3
(lp494
F41.0
aI-1
aI1
aF39.0
aI1
aI-1
aI2
aF1.5364572783253896
asg5
I0
sba(imatch
Match
p495
(dp496
g3
(lp497
F32.0
aI-1
aI1
aF48.0
aI-1
aI1
aI0
aF1.3233724843980506
asg5
I1
sba(imatch
Match
p498
(dp499
g3
(lp500
F21.0
aI-1
aI1
aF21.0
aI-1
aI-1
aI0
aF1.0350866494615423
asg5
I0
sba(imatch
Match
p501
(dp502
g3
(lp503
F49.0
aI-1
aI-1
aF48.0
aI-1
aI1
aI1
aF1.2870178202431484
asg5
I0
sba(imatch
Match
p504
(dp505
g3
(lp506
F49.0
aI-1
aI-1
aF19.0
aI1
aI-1
aI0
aF2.093134159196154
asg5
I0
sba(imatch
Match
p507
(dp508
g3
(lp509
F34.0
aI-1
aI-1
aF43.0
aI1
aI1
aI0
aF3.6608824843425105
asg5
I0
sba(imatch
Match
p510
(dp511
g3
(lp512
F25.0
aI-1
aI1
aF33.0
aI-1
aI-1
aI1
aF3.747640824036808
asg5
I0
sba(imatch
Match
p513
(dp514
g3
(lp515
F30.0
aI1
aI1
aF39.0
aI-1
aI-1
aI1
aF1.22729786739847
asg5
I0
sba(imatch
Match
p516
(dp517
g3
(lp518
F24.0
aI-1
aI-1
aF35.0
aI-1
aI-1
aI0
aF0.0
asg5
I0
sba(imatch
Match
p519
(dp520
g3
(lp521
F35.0
aI-1
aI-1
aF36.0
aI-1
aI1
aI1
aF0.7323646828129101
asg5
I0
sba(imatch
Match
p522
(dp523
g3
(lp524
F39.0
aI-1
aI-1
aF26.0
aI-1
aI-1
aI3
aF1.4626678789312944
asg5
I1
sba(imatch
Match
p525
(dp526
g3
(lp527
F19.0
aI1
aI1
aF29.0
aI-1
aI-1
aI4
aF0.6986162704437499
asg5
I0
sba(imatch
Match
p528
(dp529
g3
(lp530
F48.0
aI1
aI-1
aF48.0
aI1
aI1
aI3
aF4.780811053353801
asg5
I1
sba(imatch
Match
p531
(dp532
g3
(lp533
F30.0
aI-1
aI-1
aF44.0
aI-1
aI-1
aI3
aF1.286087608799567
asg5
I1
sba(imatch
Match
p534
(dp535
g3
(lp536
F32.0
aI-1
aI1
aF49.0
aI-1
aI-1
aI0
aF7.4161017531020175
asg5
I0
sba(imatch
Match
p537
(dp538
g3
(lp539
F21.0
aI-1
aI-1
aF20.0
aI-1
aI-1
aI1
aF2.908725394760188
asg5
I1
sba(imatch
Match
p540
(dp541
g3
(lp542
F20.0
aI1
aI-1
aF46.0
aI-1
aI-1
aI1
aF2.3980611291370977
asg5
I0
sba(imatch
Match
p543
(dp544
g3
(lp545
F50.0
aI-1
aI-1
aF20.0
aI-1
aI1
aI0
aF1.5441600810930824
asg5
I0
sba(imatch
Match
p546
(dp547
g3
(lp548
F27.0
aI-1
aI1
aF25.0
aI1
aI1
aI0
aF6.253376177578364
asg5
I1
sba(imatch
Match
p549
(dp550
g3
(lp551
F20.0
aI-1
aI-1
aF21.0
aI1
aI1
aI0
aF2.8546419654585056
asg5
I0
sba(imatch
Match
p552
(dp553
g3
(lp554
F29.0
aI-1
aI-1
aF34.0
aI-1
aI1
aI0
aF2.5344052644879564
asg5
I0
sba(imatch
Match
p555
(dp556
g3
(lp557
F35.0
aI-1
aI1
aF32.0
aI-1
aI1
aI1
aF1.3535696196810463
asg5
I1
sba(imatch
Match
p558
(dp559
g3
(lp560
F44.0
aI1
aI-1
aF25.0
aI1
aI1
aI1
aF2.350732211525645
asg5
I0
sba(imatch
Match
p561
(dp562
g3
(lp563
F22.0
aI-1
aI1
aF34.0
aI-1
aI-1
aI2
aF1.286087608799567
asg5
I0
sba(imatch
Match
p564
(dp565
g3
(lp566
F41.0
aI1
aI1
aF19.0
aI-1
aI1
aI1
aF0.6856181361229752
asg5
I1
sba(imatch
Match
p567
(dp568
g3
(lp569
F36.0
aI-1
aI-1
aF19.0
aI-1
aI1
aI0
aF1.4082340991977804
asg5
I0
sba(imatch
Match
p570
(dp571
g3
(lp572
F38.0
aI-1
aI1
aF44.0
aI-1
aI-1
aI0
aF3.773844171718563
asg5
I0
sba(imatch
Match
p573
(dp574
g3
(lp575
F34.0
aI-1
aI-1
aF42.0
aI-1
aI1
aI1
aF4.1182374001201865
asg5
I0
sba(imatch
Match
p576
(dp577
g3
(lp578
F35.0
aI1
aI-1
aF26.0
aI-1
aI-1
aI2
aF2.1611424859428947
asg5
I1
sba(imatch
Match
p579
(dp580
g3
(lp581
F46.0
aI-1
aI-1
aF40.0
aI-1
aI-1
aI2
aF4.188632042783578
asg5
I1
sba(imatch
Match
p582
(dp583
g3
(lp584
F47.0
aI-1
aI-1
aF18.0
aI-1
aI1
aI1
aF3.0129794049556406
asg5
I0
sba(imatch
Match
p585
(dp586
g3
(lp587
F41.0
aI-1
aI-1
aF37.0
aI-1
aI-1
aI1
aF3.2995757769033123
asg5
I1
sba(imatch
Match
p588
(dp589
g3
(lp590
F46.0
aI-1
aI1
aF50.0
aI-1
aI1
aI0
aF0.14119067042538339
asg5
I1
sba(imatch
Match
p591
(dp592
g3
(lp593
F18.0
aI-1
aI-1
aF24.0
aI-1
aI1
aI1
aF1.9410154864551812
asg5
I0
sba(imatch
Match
p594
(dp595
g3
(lp596
F20.0
aI-1
aI-1
aF30.0
aI-1
aI-1
aI1
aF2.253709711310622
asg5
I0
sba(imatch
Match
p597
(dp598
g3
(lp599
F41.0
aI-1
aI-1
aF35.0
aI-1
aI-1
aI1
aF2.0805848664505806
asg5
I1
sba(imatch
Match
p600
(dp601
g3
(lp602
F40.0
aI1
aI1
aF42.0
aI-1
aI-1
aI1
aF1.3719661953114393
asg5
I0
sba(imatch
Match
p603
(dp604
g3
(lp605
F20.0
aI1
aI-1
aF39.0
aI-1
aI-1
aI1
aF1.7554936237179073
asg5
I0
sba(imatch
Match
p606
(dp607
g3
(lp608
F44.0
aI-1
aI1
aF44.0
aI-1
aI1
aI1
aF0.9759010850191248
asg5
I1
sba(imatch
Match
p609
(dp610
g3
(lp611
F20.0
aI-1
aI1
aF26.0
aI-1
aI-1
aI2
aF1.6022837374667385
asg5
I0
sba(imatch
Match
p612
(dp613
g3
(lp614
F26.0
aI-1
aI1
aF25.0
aI-1
aI1
aI2
aF0.3752926906223539
asg5
I1
sba(imatch
Match
p615
(dp616
g3
(lp617
F35.0
aI-1
aI1
aF44.0
aI1
aI1
aI0
aF1.8635708754502445
asg5
I1
sba(imatch
Match
p618
(dp619
g3
(lp620
F47.0
aI1
aI-1
aF30.0
aI-1
aI1
aI0
aF0.0
asg5
I0
sba(imatch
Match
p621
(dp622
g3
(lp623
F47.0
aI-1
aI1
aF43.0
aI-1
aI1
aI1
aF1.2844490710569823
asg5
I1
sba(imatch
Match
p624
(dp625
g3
(lp626
F22.0
aI-1
aI-1
aF38.0
aI1
aI-1
aI1
aF2.0715339173902807
asg5
I0
sba(imatch
Match
p627
(dp628
g3
(lp629
F37.0
aI1
aI1
aF29.0
aI-1
aI-1
aI3
aF1.559510406521691
asg5
I1
sba(imatch
Match
p630
(dp631
g3
(lp632
F29.0
aI1
aI1
aF41.0
aI-1
aI-1
aI0
aF6.3538408603375345
asg5
I0
sba(imatch
Match
p633
(dp634
g3
(lp635
F33.0
aI-1
aI1
aF26.0
aI-1
aI1
aI1
aF1.2212430459242374
asg5
I1
sba(imatch
Match
p636
(dp637
g3
(lp638
F18.0
aI-1
aI1
aF21.0
aI-1
aI-1
aI2
aF1.9328570399526117
asg5
I0
sba(imatch
Match
p639
(dp640
g3
(lp641
F45.0
aI-1
aI1
aF28.0
aI-1
aI-1
aI2
aF0.6293883082720465
asg5
I0
sba(imatch
Match
p642
(dp643
g3
(lp644
F48.0
aI-1
aI-1
aF49.0
aI-1
aI1
aI0
aF3.7754911490412733
asg5
I0
sba(imatch
Match
p645
(dp646
g3
(lp647
F25.0
aI1
aI-1
aF31.0
aI1
aI1
aI1
aF1.728795561886752
asg5
I0
sba(imatch
Match
p648
(dp649
g3
(lp650
F18.0
aI-1
aI-1
aF23.0
aI-1
aI1
aI0
aF6.513173985320589
asg5
I0
sba(imatch
Match
p651
(dp652
g3
(lp653
F37.0
aI-1
aI1
aF43.0
aI1
aI1
aI2
aF1.841487406886418
asg5
I1
sba(imatch
Match
p654
(dp655
g3
(lp656
F43.0
aI-1
aI-1
aF40.0
aI1
aI1
aI0
aF1.6235839893587103
asg5
I0
sba(imatch
Match
p657
(dp658
g3
(lp659
F22.0
aI-1
aI1
aF42.0
aI-1
aI1
aI0
aF1.9334433589979174
asg5
I0
sba(imatch
Match
p660
(dp661
g3
(lp662
F23.0
aI-1
aI1
aF46.0
aI-1
aI1
aI2
aF1.9584253200189572
asg5
I0
sba(imatch
Match
p663
(dp664
g3
(lp665
F45.0
aI-1
aI-1
aF24.0
aI-1
aI-1
aI2
aF1.1325458237019221
asg5
I0
sba(imatch
Match
p666
(dp667
g3
(lp668
F40.0
aI1
aI1
aF47.0
aI1
aI-1
aI0
aF2.1611424859428947
asg5
I0
sba(imatch
Match
p669
(dp670
g3
(lp671
F18.0
aI1
aI1
aF31.0
aI1
aI-1
aI2
aF0.6200725564793717
asg5
I0
sba(imatch
Match
p672
(dp673
g3
(lp674
F41.0
aI-1
aI1
aF41.0
aI1
aI1
aI1
aF1.660663010849644
asg5
I1
sba(imatch
Match
p675
(dp676
g3
(lp677
F25.0
aI-1
aI1
aF34.0
aI-1
aI1
aI1
aF0.9258325922993772
asg5
I1
sba(imatch
Match
p678
(dp679
g3
(lp680
F33.0
aI-1
aI-1
aF28.0
aI-1
aI1
aI1
aF2.1611424859428947
asg5
I0
sba(imatch
Match
p681
(dp682
g3
(lp683
F47.0
aI-1
aI-1
aF34.0
aI1
aI1
aI1
aF3.16561159267384
asg5
I0
sba(imatch
Match
p684
(dp685
g3
(lp686
F40.0
aI-1
aI-1
aF22.0
aI-1
aI1
aI2
aF0.5641785113133185
asg5
I0
sba(imatch
Match
p687
(dp688
g3
(lp689
F33.0
aI1
aI-1
aF33.0
aI-1
aI1
aI4
aF2.093134159196154
asg5
I1
sba(imatch
Match
p690
(dp691
g3
(lp692
F30.0
aI-1
aI1
aF32.0
aI-1
aI1
aI0
aF1.5493330473168725
asg5
I1
sba(imatch
Match
p693
(dp694
g3
(lp695
F23.0
aI-1
aI1
aF18.0
aI-1
aI-1
aI0
aF1.3719661953114393
asg5
I0
sba(imatch
Match
p696
(dp697
g3
(lp698
F26.0
aI1
aI-1
aF18.0
aI-1
aI1
aI0
aF2.9969132495117066
asg5
I0
sba(imatch
Match
p699
(dp700
g3
(lp701
F22.0
aI-1
aI-1
aF46.0
aI-1
aI1
aI1
aF0.8057928893956473
asg5
I0
sba(imatch
Match
p702
(dp703
g3
(lp704
F44.0
aI1
aI1
aF23.0
aI-1
aI-1
aI0
aF6.253376177578364
asg5
I0
sba(imatch
Match
p705
(dp706
g3
(lp707
F27.0
aI-1
aI-1
aF31.0
aI-1
aI-1
aI0
aF4.254182966360609
asg5
I1
sba(imatch
Match
p708
(dp709
g3
(lp710
F27.0
aI-1
aI1
aF27.0
aI1
aI-1
aI2
aF1.4678724913676064
asg5
I0
sba(imatch
Match
p711
(dp712
g3
(lp713
F25.0
aI-1
aI-1
aF42.0
aI-1
aI-1
aI1
aF4.864912513609273
asg5
I0
sba(imatch
Match
p714
(dp715
g3
(lp716
F34.0
aI-1
aI-1
aF47.0
aI1
aI1
aI0
aF0.28839933616523733
asg5
I0
sba(imatch
Match
p717
(dp718
g3
(lp719
F28.0
aI-1
aI1
aF45.0
aI-1
aI-1
aI0
aF1.49839459337834
asg5
I0
sba(imatch
Match
p720
(dp721
g3
(lp722
F22.0
aI-1
aI1
aF21.0
aI-1
aI1
aI3
aF0.9699796969709347
asg5
I1
sba(imatch
Match
p723
(dp724
g3
(lp725
F47.0
aI-1
aI-1
aF36.0
aI-1
aI1
aI2
aF0.4017257509128084
asg5
I0
sba(imatch
Match
p726
(dp727
g3
(lp728
F36.0
aI1
aI1
aF42.0
aI1
aI-1
aI0
aF5.636651903521867
asg5
I0
sba(imatch
Match
p729
(dp730
g3
(lp731
F22.0
aI-1
aI-1
aF31.0
aI-1
aI1
aI1
aF0.8057928893956473
asg5
I0
sba(imatch
Match
p732
(dp733
g3
(lp734
F48.0
aI-1
aI1
aF35.0
aI-1
aI1
aI1
aF1.9410154864551812
asg5
I1
sba(imatch
Match
p735
(dp736
g3
(lp737
F32.0
aI-1
aI-1
aF29.0
aI-1
aI1
aI2
aF3.1792731493221478
asg5
I0
sba(imatch
Match
p738
(dp739
g3
(lp740
F20.0
aI-1
aI1
aF24.0
aI-1
aI-1
aI2
aF0.3308101842374436
asg5
I0
sba(imatch
Match
p741
(dp742
g3
(lp743
F20.0
aI-1
aI1
aF41.0
aI1
aI1
aI0
aF6.981745713373556
asg5
I0
sba(imatch
Match
p744
(dp745
g3
(lp746
F31.0
aI-1
aI-1
aF25.0
aI-1
aI-1
aI2
aF0.6272922182794403
asg5
I1
sba(imatch
Match
p747
(dp748
g3
(lp749
F48.0
aI-1
aI1
aF47.0
aI-1
aI1
aI0
aF2.0586532370269564
asg5
I1
sba(imatch
Match
p750
(dp751
g3
(lp752
F42.0
aI-1
aI1
aF22.0
aI-1
aI-1
aI1
aF1.4908207646861422
asg5
I0
sba(imatch
Match
p753
(dp754
g3
(lp755
F31.0
aI-1
aI-1
aF47.0
aI-1
aI1
aI0
aF1.7900842099702539
asg5
I0
sba(imatch
Match
p756
(dp757
g3
(lp758
F19.0
aI1
aI-1
aF38.0
aI1
aI1
aI0
aF0.36527782085144295
asg5
I0
sba(imatch
Match
p759
(dp760
g3
(lp761
F26.0
aI-1
aI-1
aF29.0
aI-1
aI-1
aI0
aF1.1400348331817627
asg5
I1
sba(imatch
Match
p762
(dp763
g3
(lp764
F35.0
aI1
aI1
aF46.0
aI-1
aI1
aI0
aF1.6268916022394522
asg5
I1
sba(imatch
Match
p765
(dp766
g3
(lp767
F32.0
aI-1
aI-1
aF46.0
aI1
aI-1
aI0
aF3.3596540397724666
asg5
I1
sba(imatch
Match
p768
(dp769
g3
(lp770
F28.0
aI1
aI1
aF24.0
aI1
aI1
aI1
aF2.2050347887321715
asg5
I1
sba(imatch
Match
p771
(dp772
g3
(lp773
F38.0
aI1
aI1
aF42.0
aI-1
aI-1
aI0
aF0.6550630389059764
asg5
I0
sba(imatch
Match
p774
(dp775
g3
(lp776
F48.0
aI-1
aI-1
aF46.0
aI1
aI1
aI0
aF0.39334558943254005
asg5
I0
sba(imatch
Match
p777
(dp778
g3
(lp779
F46.0
aI-1
aI-1
aF44.0
aI-1
aI-1
aI0
aF6.981745713373556
asg5
I1
sba(imatch
Match
p780
(dp781
g3
(lp782
F25.0
aI-1
aI1
aF38.0
aI-1
aI-1
aI1
aF3.9069526704686646
asg5
I0
sba(imatch
Match
p783
(dp784
g3
(lp785
F25.0
aI-1
aI1
aF26.0
aI-1
aI1
aI0
aF0.6986162704437499
asg5
I1
sba(imatch
Match
p786
(dp787
g3
(lp788
F48.0
aI-1
aI1
aF38.0
aI-1
aI1
aI2
aF1.4057962276020546
asg5
I1
sba(imatch
Match
p789
(dp790
g3
(lp791
F37.0
aI-1
aI1
aF42.0
aI-1
aI-1
aI0
aF1.2844490710569823
asg5
I0
sba(imatch
Match
p792
(dp793
g3
(lp794
F25.0
aI1
aI-1
aF49.0
aI1
aI1
aI1
aF1.815248320630139
asg5
I0
sba(imatch
Match
p795
(dp796
g3
(lp797
F45.0
aI1
aI-1
aF29.0
aI-1
aI-1
aI1
aF0.5456014069601883
asg5
I1
sba(imatch
Match
p798
(dp799
g3
(lp800
F24.0
aI1
aI1
aF40.0
aI-1
aI1
aI1
aF1.7724367109190278
asg5
I0
sba(imatch
Match
p801
(dp802
g3
(lp803
F43.0
aI-1
aI-1
aF45.0
aI1
aI-1
aI0
aF2.82420991612131
asg5
I1
sba(imatch
Match
p804
(dp805
g3
(lp806
F34.0
aI1
aI1
aF43.0
aI1
aI1
aI4
aF1.4082340991977804
asg5
I1
sba(imatch
Match
p807
(dp808
g3
(lp809
F42.0
aI-1
aI-1
aF22.0
aI-1
aI1
aI1
aF2.754651717959406
asg5
I0
sba(imatch
Match
p810
(dp811
g3
(lp812
F47.0
aI-1
aI-1
aF27.0
aI-1
aI1
aI1
aF6.3538408603375345
asg5
I0
sba(imatch
Match
p813
(dp814
g3
(lp815
F24.0
aI-1
aI-1
aF33.0
aI-1
aI1
aI0
aF2.073346255213433
asg5
I0
sba(imatch
Match
p816
(dp817
g3
(lp818
F29.0
aI-1
aI-1
aF39.0
aI1
aI1
aI0
aF3.9192674656252993
asg5
I0
sba(imatch
Match
p819
(dp820
g3
(lp821
F41.0
aI-1
aI-1
aF33.0
aI-1
aI1
aI1
aF1.770405545588254
asg5
I0
sba(imatch
Match
p822
(dp823
g3
(lp824
F48.0
aI-1
aI-1
aF28.0
aI1
aI-1
aI1
aF0.9957035262727142
asg5
I1
sba(imatch
Match
p825
(dp826
g3
(lp827
F20.0
aI-1
aI1
aF35.0
aI-1
aI1
aI1
aF2.272911009406907
asg5
I0
sba(imatch
Match
p828
(dp829
g3
(lp830
F36.0
aI-1
aI-1
aF21.0
aI-1
aI-1
aI3
aF2.0276700943848214
asg5
I1
sba(imatch
Match
p831
(dp832
g3
(lp833
F32.0
aI-1
aI1
aF29.0
aI1
aI1
aI0
aF0.5521695876388769
asg5
I1
sba(imatch
Match
p834
(dp835
g3
(lp836
F23.0
aI-1
aI1
aF22.0
aI1
aI-1
aI0
aF1.5676239578936797
asg5
I0
sba(imatch
Match
p837
(dp838
g3
(lp839
F22.0
aI-1
aI-1
aF47.0
aI-1
aI-1
aI1
aF1.2212430459242374
asg5
I0
sba(imatch
Match
p840
(dp841
g3
(lp842
F39.0
aI-1
aI-1
aF28.0
aI1
aI1
aI2
aF0.7819704987921081
asg5
I0
sba(imatch
Match
p843
(dp844
g3
(lp845
F44.0
aI-1
aI1
aF27.0
aI-1
aI1
aI0
aF3.1298011076796675
asg5
I1
sba(imatch
Match
p846
(dp847
g3
(lp848
F20.0
aI-1
aI-1
aF33.0
aI-1
aI-1
aI0
aF1.7554936237179073
asg5
I0
sba(imatch
Match
p849
(dp850
g3
(lp851
F48.0
aI-1
aI1
aF36.0
aI1
aI-1
aI1
aF5.290084120651194
asg5
I0
sba(imatch
Match
p852
(dp853
g3
(lp854
F29.0
aI-1
aI1
aF25.0
aI-1
aI-1
aI0
aF3.4653808239091886
asg5
I0
sba(imatch
Match
p855
(dp856
g3
(lp857
F26.0
aI-1
aI-1
aF39.0
aI-1
aI-1
aI1
aF7.6192911751868575
asg5
I1
sba(imatch
Match
p858
(dp859
g3
(lp860
F46.0
aI-1
aI1
aF27.0
aI1
aI1
aI1
aF0.3752926906223539
asg5
I1
sba(imatch
Match
p861
(dp862
g3
(lp863
F25.0
aI-1
aI1
aF21.0
aI-1
aI1
aI1
aF2.1611424859428947
asg5
I1
sba(imatch
Match
p864
(dp865
g3
(lp866
F32.0
aI-1
aI-1
aF41.0
aI-1
aI-1
aI3
aF1.5719908353325227
asg5
I1
sba(imatch
Match
p867
(dp868
g3
(lp869
F37.0
aI1
aI-1
aF48.0
aI-1
aI1
aI2
aF2.3476504933958258
asg5
I0
sba(imatch
Match
p870
(dp871
g3
(lp872
F25.0
aI-1
aI1
aF22.0
aI-1
aI1
aI1
aF3.1298011076796675
asg5
I1
sba(imatch
Match
p873
(dp874
g3
(lp875
F29.0
aI-1
aI1
aF33.0
aI-1
aI1
aI1
aF1.4214451647104653
asg5
I1
sba(imatch
Match
p876
(dp877
g3
(lp878
F44.0
aI1
aI-1
aF23.0
aI-1
aI1
aI1
aF0.8286482075405809
asg5
I0
sba(imatch
Match
p879
(dp880
g3
(lp881
F28.0
aI-1
aI1
aF46.0
aI-1
aI1
aI1
aF0.0
asg5
I0
sba(imatch
Match
p882
(dp883
g3
(lp884
F45.0
aI-1
aI1
aF32.0
aI-1
aI-1
aI0
aF2.0086624320899054
asg5
I0
sba(imatch
Match
p885
(dp886
g3
(lp887
F49.0
aI-1
aI1
aF26.0
aI1
aI1
aI2
aF5.997751885661548
asg5
I1
sba(imatch
Match
p888
(dp889
g3
(lp890
F47.0
aI-1
aI1
aF18.0
aI-1
aI-1
aI2
aF1.3848735083782162
asg5
I0
sba(imatch
Match
p891
(dp892
g3
(lp893
F19.0
aI-1
aI-1
aF29.0
aI-1
aI-1
aI2
aF0.6550630389059764
asg5
I0
sba(imatch
Match
p894
(dp895
g3
(lp896
F34.0
aI-1
aI1
aF27.0
aI-1
aI1
aI1
aF2.054194280594747
asg5
I1
sba(imatch
Match
p897
(dp898
g3
(lp899
F34.0
aI-1
aI-1
aF46.0
aI-1
aI-1
aI0
aF0.23543303655998785
asg5
I1
sba(imatch
Match
p900
(dp901
g3
(lp902
F49.0
aI-1
aI-1
aF33.0
aI-1
aI1
aI1
aF1.876493539164487
asg5
I0
sba(imatch
Match
p903
(dp904
g3
(lp905
F21.0
aI-1
aI1
aF18.0
aI-1
aI-1
aI2
aF3.9525294041397836
asg5
I0
sba(imatch
Match
p906
(dp907
g3
(lp908
F20.0
aI-1
aI1
aF37.0
aI-1
aI-1
aI2
aF2.4280652872606683
asg5
I0
sba(imatch
Match
p909
(dp910
g3
(lp911
F49.0
aI-1
aI-1
aF40.0
aI-1
aI1
aI1
aF1.4685618851974085
asg5
I0
sba(imatch
Match
p912
(dp913
g3
(lp914
F43.0
aI-1
aI-1
aF44.0
aI-1
aI-1
aI0
aF3.1792731493221478
asg5
I1
sba(imatch
Match
p915
(dp916
g3
(lp917
F44.0
aI-1
aI1
aF24.0
aI-1
aI-1
aI0
aF1.8170059208411589
asg5
I0
sba(imatch
Match
p918
(dp919
g3
(lp920
F24.0
aI-1
aI1
aF24.0
aI-1
aI-1
aI0
aF3.1148525461945518
asg5
I0
sba(imatch
Match
p921
(dp922
g3
(lp923
F28.0
aI-1
aI1
aF19.0
aI-1
aI1
aI2
aF0.36527782085144295
asg5
I1
sba(imatch
Match
p924
(dp925
g3
(lp926
F50.0
aI-1
aI-1
aF21.0
aI1
aI1
aI2
aF0.9699796969709347
asg5
I0
sba(imatch
Match
p927
(dp928
g3
(lp929
F41.0
aI-1
aI-1
aF38.0
aI-1
aI1
aI1
aF1.145875547491465
asg5
I0
sba(imatch
Match
p930
(dp931
g3
(lp932
F19.0
aI-1
aI-1
aF44.0
aI-1
aI-1
aI2
aF5.969633163584949
asg5
I0
sba(imatch
Match
p933
(dp934
g3
(lp935
F44.0
aI-1
aI-1
aF47.0
aI-1
aI-1
aI0
aF2.679715344441784
asg5
I1
sba(imatch
Match
p936
(dp937
g3
(lp938
F30.0
aI-1
aI-1
aF43.0
aI-1
aI1
aI1
aF1.4678724913676064
asg5
I0
sba(imatch
Match
p939
(dp940
g3
(lp941
F36.0
aI-1
aI-1
aF42.0
aI-1
aI1
aI0
aF5.636651903521867
asg5
I0
sba(imatch
Match
p942
(dp943
g3
(lp944
F40.0
aI-1
aI-1
aF46.0
aI-1
aI-1
aI2
aF1.7900842099702539
asg5
I1
sba(imatch
Match
p945
(dp946
g3
(lp947
F35.0
aI-1
aI1
aF38.0
aI-1
aI1
aI3
aF2.0086624320899054
asg5
I1
sba(imatch
Match
p948
(dp949
g3
(lp950
F29.0
aI-1
aI1
aF22.0
aI-1
aI1
aI1
aF0.3750481651119897
asg5
I1
sba(imatch
Match
p951
(dp952
g3
(lp953
F18.0
aI-1
aI1
aF32.0
aI1
aI-1
aI0
aF4.254735753405682
asg5
I0
sba(imatch
Match
p954
(dp955
g3
(lp956
F27.0
aI-1
aI-1
aF33.0
aI-1
aI-1
aI0
aF0.5120285728657493
asg5
I1
sba(imatch
Match
p957
(dp958
g3
(lp959
F18.0
aI1
aI1
aF46.0
aI-1
aI1
aI5
aF3.5145339280874492
asg5
I0
sba(imatch
Match
p960
(dp961
g3
(lp962
F26.0
aI-1
aI-1
aF18.0
aI-1
aI-1
aI0
aF0.7893157104133908
asg5
I1
sba(imatch
Match
p963
(dp964
g3
(lp965
F35.0
aI-1
aI-1
aF49.0
aI-1
aI-1
aI0
aF3.5459589049372995
asg5
I1
sba(imatch
Match
p966
(dp967
g3
(lp968
F18.0
aI-1
aI-1
aF44.0
aI-1
aI1
aI1
aF6.3538408603375345
asg5
I0
sba(imatch
Match
p969
(dp970
g3
(lp971
F18.0
aI-1
aI-1
aF38.0
aI-1
aI1
aI1
aF0.0
asg5
I0
sba(imatch
Match
p972
(dp973
g3
(lp974
F40.0
aI1
aI1
aF34.0
aI-1
aI1
aI0
aF4.793459643916086
asg5
I1
sba(imatch
Match
p975
(dp976
g3
(lp977
F21.0
aI-1
aI1
aF19.0
aI-1
aI1
aI0
aF0.4350098427206532
asg5
I1
sba(imatch
Match
p978
(dp979
g3
(lp980
F31.0
aI1
aI1
aF39.0
aI-1
aI-1
aI0
aF1.2582404983710886
asg5
I0
sba(imatch
Match
p981
(dp982
g3
(lp983
F29.0
aI-1
aI1
aF27.0
aI1
aI-1
aI3
aF1.8960956868668715
asg5
I1
sba(imatch
Match
p984
(dp985
g3
(lp986
F31.0
aI-1
aI1
aF50.0
aI1
aI-1
aI0
aF1.6235839893587103
asg5
I0
sba(imatch
Match
p987
(dp988
g3
(lp989
F22.0
aI-1
aI1
aF19.0
aI1
aI1
aI1
aF2.352558594547673
asg5
I1
sba(imatch
Match
p990
(dp991
g3
(lp992
F35.0
aI-1
aI-1
aF35.0
aI-1
aI-1
aI0
aF1.215557342393806
asg5
I1
sba(imatch
Match
p993
(dp994
g3
(lp995
F43.0
aI-1
aI1
aF46.0
aI-1
aI1
aI0
aF0.0
asg5
I1
sba(imatch
Match
p996
(dp997
g3
(lp998
F44.0
aI1
aI-1
aF24.0
aI-1
aI1
aI2
aF4.793459643916086
asg5
I0
sba(imatch
Match
p999
(dp1000
g3
(lp1001
F23.0
aI-1
aI-1
aF28.0
aI1
aI-1
aI2
aF3.1148525461945518
asg5
I1
sba(imatch
Match
p1002
(dp1003
g3
(lp1004
F40.0
aI-1
aI-1
aF43.0
aI-1
aI1
aI2
aF6.258601702482364
asg5
I0
sba(imatch
Match
p1005
(dp1006
g3
(lp1007
F20.0
aI-1
aI-1
aF47.0
aI1
aI-1
aI1
aF2.9969132495117066
asg5
I0
sba(imatch
Match
p1008
(dp1009
g3
(lp1010
F23.0
aI-1
aI1
aF31.0
aI-1
aI-1
aI2
aF3.16561159267384
asg5
I0
sba(imatch
Match
p1011
(dp1012
g3
(lp1013
F46.0
aI-1
aI1
aF31.0
aI-1
aI-1
aI1
aF2.902738118501162
asg5
I0
sba(imatch
Match
p1014
(dp1015
g3
(lp1016
F48.0
aI-1
aI-1
aF40.0
aI-1
aI1
aI1
aF3.4653808239091886
asg5
I0
sba(imatch
Match
p1017
(dp1018
g3
(lp1019
F23.0
aI-1
aI1
aF49.0
aI1
aI-1
aI1
aF1.2383752728780941
asg5
I0
sba(imatch
Match
p1020
(dp1021
g3
(lp1022
F21.0
aI-1
aI1
aF45.0
aI-1
aI1
aI0
aF3.0308781927753587
asg5
I0
sba(imatch
Match
p1023
(dp1024
g3
(lp1025
F24.0
aI-1
aI1
aF24.0
aI-1
aI-1
aI0
aF1.5446632880755342
asg5
I0
sba(imatch
Match
p1026
(dp1027
g3
(lp1028
F45.0
aI-1
aI1
aF21.0
aI1
aI1
aI0
aF3.173194752680382
asg5
I0
sba(imatch
Match
p1029
(dp1030
g3
(lp1031
F33.0
aI-1
aI1
aF46.0
aI1
aI-1
aI1
aF0.6208543408147018
asg5
I0
sba(imatch
Match
p1032
(dp1033
g3
(lp1034
F37.0
aI-1
aI-1
aF39.0
aI-1
aI1
aI2
aF0.6604021226801543
asg5
I0
sba(imatch
Match
p1035
(dp1036
g3
(lp1037
F33.0
aI-1
aI1
aF36.0
aI-1
aI1
aI0
aF1.9143332817210008
asg5
I1
sba(imatch
Match
p1038
(dp1039
g3
(lp1040
F23.0
aI-1
aI-1
aF29.0
aI-1
aI1
aI2
aF3.1792731493221478
asg5
I0
sba(imatch
Match
p1041
(dp1042
g3
(lp1043
F35.0
aI-1
aI1
aF20.0
aI1
aI1
aI1
aF2.3281791662826357
asg5
I1
sba(imatch
Match
p1044
(dp1045
g3
(lp1046
F23.0
aI-1
aI-1
aF38.0
aI1
aI1
aI0
aF2.1987869098707193
asg5
I0
sba(imatch
Match
p1047
(dp1048
g3
(lp1049
F48.0
aI-1
aI-1
aF45.0
aI-1
aI-1
aI0
aF0.24133810700381264
asg5
I1
sba(imatch
Match
p1050
(dp1051
g3
(lp1052
F27.0
aI-1
aI1
aF20.0
aI1
aI1
aI0
aF1.2582404983710886
asg5
I1
sba(imatch
Match
p1053
(dp1054
g3
(lp1055
F37.0
aI-1
aI-1
aF39.0
aI-1
aI-1
aI0
aF0.7323646828129101
asg5
I1
sba(imatch
Match
p1056
(dp1057
g3
(lp1058
F24.0
aI-1
aI1
aF47.0
aI-1
aI-1
aI0
aF1.5790635758806515
asg5
I0
sba(imatch
Match
p1059
(dp1060
g3
(lp1061
F49.0
aI-1
aI-1
aF24.0
aI1
aI-1
aI1
aF0.6077743192406693
asg5
I0
sba(imatch
Match
p1062
(dp1063
g3
(lp1064
F33.0
aI-1
aI1
aF22.0
aI-1
aI-1
aI0
aF0.8653741217142414
asg5
I0
sba(imatch
Match
p1065
(dp1066
g3
(lp1067
F21.0
aI1
aI1
aF32.0
aI-1
aI-1
aI1
aF0.0
asg5
I0
sba(imatch
Match
p1068
(dp1069
g3
(lp1070
F45.0
aI-1
aI1
aF28.0
aI-1
aI1
aI1
aF0.31641407363319757
asg5
I1
sba(imatch
Match
p1071
(dp1072
g3
(lp1073
F33.0
aI1
aI1
aF50.0
aI-1
aI-1
aI0
aF1.9328570399526117
asg5
I0
sba(imatch
Match
p1074
(dp1075
g3
(lp1076
F19.0
aI-1
aI-1
aF34.0
aI-1
aI1
aI1
aF1.5446632880755342
asg5
I0
sba(imatch
Match
p1077
(dp1078
g3
(lp1079
F35.0
aI-1
aI1
aF23.0
aI-1
aI1
aI0
aF0.31867909389005944
asg5
I1
sba(imatch
Match
p1080
(dp1081
g3
(lp1082
F38.0
aI-1
aI-1
aF31.0
aI-1
aI1
aI1
aF3.740804949755318
asg5
I0
sba(imatch
Match
p1083
(dp1084
g3
(lp1085
F19.0
aI-1
aI1
aF30.0
aI-1
aI1
aI2
aF7.954722315558813
asg5
I0
sba(imatch
Match
p1086
(dp1087
g3
(lp1088
F22.0
aI1
aI1
aF34.0
aI-1
aI1
aI1
aF1.5309620565529096
asg5
I0
sba(imatch
Match
p1089
(dp1090
g3
(lp1091
F36.0
aI-1
aI1
aF33.0
aI-1
aI-1
aI1
aF1.1058011484898824
asg5
I0
sba(imatch
Match
p1092
(dp1093
g3
(lp1094
F42.0
aI-1
aI1
aF25.0
aI-1
aI-1
aI2
aF0.6856181361229752
asg5
I0
sba(imatch
Match
p1095
(dp1096
g3
(lp1097
F29.0
aI-1
aI1
aF27.0
aI-1
aI1
aI1
aF3.451053452938867
asg5
I1
sba(imatch
Match
p1098
(dp1099
g3
(lp1100
F48.0
aI-1
aI1
aF48.0
aI-1
aI1
aI1
aF3.605902837760421
asg5
I1
sba(imatch
Match
p1101
(dp1102
g3
(lp1103
F27.0
aI-1
aI-1
aF26.0
aI-1
aI-1
aI0
aF0.31867909389005944
asg5
I1
sba(imatch
Match
p1104
(dp1105
g3
(lp1106
F48.0
aI-1
aI1
aF48.0
aI-1
aI-1
aI1
aF0.3308101842374436
asg5
I0
sba(imatch
Match
p1107
(dp1108
g3
(lp1109
F26.0
aI-1
aI-1
aF35.0
aI-1
aI1
aI1
aF2.0086624320899054
asg5
I0
sba(imatch
Match
p1110
(dp1111
g3
(lp1112
F22.0
aI-1
aI1
aF43.0
aI-1
aI1
aI1
aF2.0715339173902807
asg5
I0
sba(imatch
Match
p1113
(dp1114
g3
(lp1115
F33.0
aI1
aI-1
aF48.0
aI-1
aI-1
aI3
aF6.513173985320589
asg5
I1
sba(imatch
Match
p1116
(dp1117
g3
(lp1118
F24.0
aI-1
aI1
aF49.0
aI-1
aI1
aI0
aF1.412194034935347
asg5
I0
sba(imatch
Match
p1119
(dp1120
g3
(lp1121
F33.0
aI-1
aI-1
aF48.0
aI1
aI-1
aI1
aF2.754651717959406
asg5
I1
sba(imatch
Match
p1122
(dp1123
g3
(lp1124
F26.0
aI-1
aI1
aF26.0
aI-1
aI-1
aI2
aF0.6604021226801543
asg5
I0
sba(imatch
Match
p1125
(dp1126
g3
(lp1127
F30.0
aI-1
aI-1
aF29.0
aI-1
aI1
aI1
aF5.223945415525239
asg5
I0
sba(imatch
Match
p1128
(dp1129
g3
(lp1130
F25.0
aI-1
aI-1
aF49.0
aI-1
aI1
aI1
aF0.5641785113133185
asg5
I0
sba(imatch
Match
p1131
(dp1132
g3
(lp1133
F38.0
aI-1
aI1
aF23.0
aI-1
aI-1
aI2
aF1.5493330473168725
asg5
I0
sba(imatch
Match
p1134
(dp1135
g3
(lp1136
F39.0
aI-1
aI-1
aF39.0
aI-1
aI-1
aI1
aF3.773844171718563
asg5
I1
sba(imatch
Match
p1137
(dp1138
g3
(lp1139
F27.0
aI-1
aI-1
aF31.0
aI-1
aI1
aI1
aF0.8702783871910156
asg5
I0
sba(imatch
Match
p1140
(dp1141
g3
(lp1142
F28.0
aI-1
aI1
aF46.0
aI-1
aI1
aI1
aF2.2050347887321715
asg5
I0
sba(imatch
Match
p1143
(dp1144
g3
(lp1145
F50.0
aI-1
aI-1
aF49.0
aI-1
aI-1
aI0
aF2.0805848664505806
asg5
I1
sba(imatch
Match
p1146
(dp1147
g3
(lp1148
F34.0
aI1
aI1
aF48.0
aI-1
aI1
aI0
aF1.8960956868668715
asg5
I1
sba(imatch
Match
p1149
(dp1150
g3
(lp1151
F30.0
aI1
aI1
aF37.0
aI-1
aI-1
aI1
aF1.286087608799567
asg5
I0
sba(imatch
Match
p1152
(dp1153
g3
(lp1154
F27.0
aI1
aI1
aF32.0
aI-1
aI-1
aI0
aF0.0
asg5
I0
sba(imatch
Match
p1155
(dp1156
g3
(lp1157
F31.0
aI-1
aI-1
aF25.0
aI-1
aI1
aI0
aF2.239366847528989
asg5
I0
sba(imatch
Match
p1158
(dp1159
g3
(lp1160
F30.0
aI1
aI-1
aF32.0
aI1
aI1
aI2
aF1.298143001348759
asg5
I0
sba(imatch
Match
p1161
(dp1162
g3
(lp1163
F42.0
aI-1
aI1
aF35.0
aI1
aI-1
aI0
aF0.5641785113133185
asg5
I0
sba(imatch
Match
p1164
(dp1165
g3
(lp1166
F25.0
aI-1
aI1
aF34.0
aI-1
aI-1
aI0
aF0.34345204518704725
asg5
I0
sba(imatch
Match
p1167
(dp1168
g3
(lp1169
F37.0
aI1
aI1
aF42.0
aI-1
aI1
aI1
aF0.36527782085144295
asg5
I1
sba(imatch
Match
p1170
(dp1171
g3
(lp1172
F47.0
aI1
aI-1
aF29.0
aI-1
aI-1
aI1
aF1.559510406521691
asg5
I1
sba(imatch
Match
p1173
(dp1174
g3
(lp1175
F31.0
aI-1
aI-1
aF33.0
aI-1
aI-1
aI1
aF1.1420549474147925
asg5
I1
sba(imatch
Match
p1176
(dp1177
g3
(lp1178
F28.0
aI-1
aI1
aF39.0
aI-1
aI1
aI0
aF0.6077743192406693
asg5
I1
sba(imatch
Match
p1179
(dp1180
g3
(lp1181
F35.0
aI-1
aI-1
aF48.0
aI1
aI1
aI0
aF1.1107797673809194
asg5
I0
sba(imatch
Match
p1182
(dp1183
g3
(lp1184
F32.0
aI-1
aI-1
aF35.0
aI-1
aI-1
aI1
aF0.31641407363319757
asg5
I1
sba(imatch
Match
p1185
(dp1186
g3
(lp1187
F20.0
aI-1
aI-1
aF49.0
aI-1
aI-1
aI0
aF1.2101449067499668
asg5
I0
sba(imatch
Match
p1188
(dp1189
g3
(lp1190
F27.0
aI-1
aI1
aF48.0
aI-1
aI-1
aI0
aF3.4140697178176143
asg5
I0
sba(imatch
Match
p1191
(dp1192
g3
(lp1193
F22.0
aI-1
aI1
aF25.0
aI1
aI-1
aI1
aF1.9582538940374752
asg5
I0
sba(imatch
Match
p1194
(dp1195
g3
(lp1196
F38.0
aI-1
aI1
aF18.0
aI-1
aI1
aI0
aF2.4721637859303365
asg5
I1
sba(imatch
Match
p1197
(dp1198
g3
(lp1199
F43.0
aI-1
aI1
aF28.0
aI-1
aI1
aI1
aF0.6816408284012795
asg5
I1
sba(imatch
Match
p1200
(dp1201
g3
(lp1202
F32.0
aI-1
aI-1
aF44.0
aI-1
aI1
aI2
aF4.980974796644414
asg5
I0
sba(imatch
Match
p1203
(dp1204
g3
(lp1205
F44.0
aI1
aI1
aF24.0
aI-1
aI1
aI3
aF4.213521725081786
asg5
I0
sba(imatch
Match
p1206
(dp1207
g3
(lp1208
F19.0
aI-1
aI-1
aF34.0
aI1
aI1
aI2
aF5.5884345266743365
asg5
I0
sba(imatch
Match
p1209
(dp1210
g3
(lp1211
F36.0
aI-1
aI1
aF31.0
aI1
aI1
aI1
aF1.1420549474147925
asg5
I1
sba(imatch
Match
p1212
(dp1213
g3
(lp1214
F24.0
aI-1
aI1
aF37.0
aI1
aI1
aI1
aF4.771206384809595
asg5
I0
sba(imatch
Match
p1215
(dp1216
g3
(lp1217
F41.0
aI-1
aI1
aF49.0
aI1
aI-1
aI1
aF0.6326128233313727
asg5
I0
sba(imatch
Match
p1218
(dp1219
g3
(lp1220
F22.0
aI-1
aI1
aF43.0
aI1
aI-1
aI1
aF3.5459589049372995
asg5
I0
sba(imatch
Match
p1221
(dp1222
g3
(lp1223
F24.0
aI-1
aI1
aF32.0
aI1
aI1
aI1
aF1.2870178202431484
asg5
I1
sba(imatch
Match
p1224
(dp1225
g3
(lp1226
F42.0
aI-1
aI1
aF27.0
aI1
aI-1
aI0
aF7.778925978612897
asg5
I0
sba(imatch
Match
p1227
(dp1228
g3
(lp1229
F29.0
aI-1
aI-1
aF23.0
aI-1
aI-1
aI0
aF1.4463585593820085
asg5
I1
sba(imatch
Match
p1230
(dp1231
g3
(lp1232
F32.0
aI-1
aI1
aF27.0
aI1
aI1
aI1
aF1.7278311546990026
asg5
I1
sba(imatch
Match
p1233
(dp1234
g3
(lp1235
F39.0
aI-1
aI-1
aF20.0
aI-1
aI-1
aI1
aF0.0
asg5
I1
sba(imatch
Match
p1236
(dp1237
g3
(lp1238
F45.0
aI-1
aI1
aF22.0
aI1
aI1
aI0
aF1.3719661953114393
asg5
I0
sba(imatch
Match
p1239
(dp1240
g3
(lp1241
F36.0
aI-1
aI1
aF39.0
aI-1
aI1
aI1
aF1.5446632880755342
asg5
I1
sba(imatch
Match
p1242
(dp1243
g3
(lp1244
F18.0
aI-1
aI1
aF35.0
aI-1
aI1
aI0
aF2.0305883337407424
asg5
I0
sba(imatch
Match
p1245
(dp1246
g3
(lp1247
F40.0
aI-1
aI-1
aF48.0
aI-1
aI1
aI2
aF7.983255774125976
asg5
I0
sba(imatch
Match
p1248
(dp1249
g3
(lp1250
F29.0
aI-1
aI1
aF46.0
aI-1
aI-1
aI1
aF2.0999952429703455
asg5
I0
sba(imatch
Match
p1251
(dp1252
g3
(lp1253
F25.0
aI-1
aI1
aF22.0
aI-1
aI1
aI0
aF0.0
asg5
I1
sba(imatch
Match
p1254
(dp1255
g3
(lp1256
F38.0
aI-1
aI1
aF37.0
aI1
aI-1
aI2
aF0.6604021226801543
asg5
I0
sba(imatch
Match
p1257
(dp1258
g3
(lp1259
F25.0
aI-1
aI-1
aF43.0
aI-1
aI1
aI1
aF4.110051385681378
asg5
I0
sba(imatch
Match
p1260
(dp1261
g3
(lp1262
F44.0
aI-1
aI1
aF47.0
aI-1
aI1
aI1
aF0.0
asg5
I1
sba(imatch
Match
p1263
(dp1264
g3
(lp1265
F39.0
aI-1
aI-1
aF48.0
aI-1
aI1
aI2
aF1.0107432249686057
asg5
I0
sba(imatch
Match
p1266
(dp1267
g3
(lp1268
F41.0
aI-1
aI1
aF43.0
aI-1
aI-1
aI1
aF3.349557101581263
asg5
I0
sba(imatch
Match
p1269
(dp1270
g3
(lp1271
F37.0
aI-1
aI1
aF45.0
aI-1
aI1
aI1
aF0.629975733068259
asg5
I1
sba(imatch
Match
p1272
(dp1273
g3
(lp1274
F50.0
aI-1
aI1
aF25.0
aI-1
aI1
aI0
aF1.1325458237019221
asg5
I1
sba(imatch
Match
p1275
(dp1276
g3
(lp1277
F35.0
aI-1
aI-1
aF23.0
aI-1
aI-1
aI1
aF0.7719300311858138
asg5
I1
sba(imatch
Match
p1278
(dp1279
g3
(lp1280
F38.0
aI-1
aI1
aF24.0
aI-1
aI1
aI0
aF1.7973061607200205
asg5
I1
sba(imatch
Match
p1281
(dp1282
g3
(lp1283
F41.0
aI1
aI-1
aF39.0
aI-1
aI1
aI1
aF3.611429443895742
asg5
I0
sba(imatch
Match
p1284
(dp1285
g3
(lp1286
F26.0
aI-1
aI-1
aF34.0
aI1
aI1
aI1
aF1.4057962276020546
asg5
I0
sba(imatch
Match
p1287
(dp1288
g3
(lp1289
F39.0
aI1
aI-1
aF50.0
aI1
aI-1
aI0
aF0.9423048952970478
asg5
I1
sba(imatch
Match
p1290
(dp1291
g3
(lp1292
F40.0
aI-1
aI-1
aF24.0
aI-1
aI-1
aI1
aF1.7131655241992418
asg5
I1
sba(imatch
Match
p1293
(dp1294
g3
(lp1295
F47.0
aI-1
aI1
aF31.0
aI-1
aI1
aI0
aF1.559510406521691
asg5
I1
sba(imatch
Match
p1296
(dp1297
g3
(lp1298
F30.0
aI-1
aI-1
aF18.0
aI-1
aI-1
aI2
aF1.2212430459242374
asg5
I1
sba(imatch
Match
p1299
(dp1300
g3
(lp1301
F29.0
aI1
aI1
aF44.0
aI-1
aI1
aI2
aF0.0
asg5
I1
sba(imatch
Match
p1302
(dp1303
g3
(lp1304
F21.0
aI-1
aI-1
aF33.0
aI-1
aI-1
aI1
aF1.1325458237019221
asg5
I0
sba(imatch
Match
p1305
(dp1306
g3
(lp1307
F41.0
aI-1
aI1
aF18.0
aI-1
aI-1
aI1
aF3.1148525461945518
asg5
I0
sba(imatch
Match
p1308
(dp1309
g3
(lp1310
F32.0
aI-1
aI-1
aF29.0
aI-1
aI-1
aI0
aF2.523734445689712
asg5
I1
sba(imatch
Match
p1311
(dp1312
g3
(lp1313
F19.0
aI1
aI-1
aF20.0
aI-1
aI-1
aI1
aF1.521829904184516
asg5
I1
sba(imatch
Match
p1314
(dp1315
g3
(lp1316
F27.0
aI-1
aI1
aF21.0
aI-1
aI1
aI1
aF0.7755397012801096
asg5
I1
sba(imatch
Match
p1317
(dp1318
g3
(lp1319
F46.0
aI-1
aI-1
aF34.0
aI-1
aI-1
aI0
aF2.6576565285835794
asg5
I1
sba(imatch
Match
p1320
(dp1321
g3
(lp1322
F28.0
aI-1
aI1
aF34.0
aI-1
aI1
aI0
aF0.0
asg5
I1
sba(imatch
Match
p1323
(dp1324
g3
(lp1325
F28.0
aI-1
aI-1
aF31.0
aI-1
aI-1
aI2
aF1.2521986052958856
asg5
I1
sba(imatch
Match
p1326
(dp1327
g3
(lp1328
F39.0
aI1
aI-1
aF39.0
aI-1
aI-1
aI0
aF0.8456170156345548
asg5
I1
sba(imatch
Match
p1329
(dp1330
g3
(lp1331
F42.0
aI1
aI-1
aF18.0
aI-1
aI-1
aI0
aF1.2383752728780941
asg5
I0
sba(imatch
Match
p1332
(dp1333
g3
(lp1334
F47.0
aI-1
aI-1
aF25.0
aI-1
aI-1
aI5
aF1.7973061607200205
asg5
I1
sba(imatch
Match
p1335
(dp1336
g3
(lp1337
F23.0
aI-1
aI1
aF19.0
aI-1
aI-1
aI2
aF0.9273722000292617
asg5
I0
sba(imatch
Match
p1338
(dp1339
g3
(lp1340
F48.0
aI-1
aI-1
aF49.0
aI-1
aI1
aI1
aF2.879157385963264
asg5
I0
sba(imatch
Match
p1341
(dp1342
g3
(lp1343
F47.0
aI-1
aI-1
aF45.0
aI-1
aI1
aI1
aF1.026125934844845
asg5
I0
sba(imatch
Match
p1344
(dp1345
g3
(lp1346
F20.0
aI1
aI1
aF20.0
aI-1
aI1
aI1
aF4.440239011732224
asg5
I1
sba(imatch
Match
p1347
(dp1348
g3
(lp1349
F34.0
aI1
aI1
aF28.0
aI-1
aI1
aI0
aF2.0276700943848214
asg5
I1
sba(imatch
Match
p1350
(dp1351
g3
(lp1352
F43.0
aI-1
aI1
aF32.0
aI-1
aI1
aI1
aF0.3697089438517662
asg5
I1
sba(imatch
Match
p1353
(dp1354
g3
(lp1355
F33.0
aI1
aI1
aF24.0
aI-1
aI-1
aI2
aF1.49839459337834
asg5
I0
sba(imatch
Match
p1356
(dp1357
g3
(lp1358
F48.0
aI-1
aI1
aF36.0
aI1
aI-1
aI4
aF1.5790635758806515
asg5
I1
sba(imatch
Match
p1359
(dp1360
g3
(lp1361
F31.0
aI-1
aI1
aF39.0
aI-1
aI1
aI1
aF1.7900842099702539
asg5
I1
sba(imatch
Match
p1362
(dp1363
g3
(lp1364
F29.0
aI-1
aI-1
aF22.0
aI-1
aI1
aI1
aF2.270826689331565
asg5
I0
sba(imatch
Match
p1365
(dp1366
g3
(lp1367
F46.0
aI1
aI1
aF25.0
aI1
aI-1
aI1
aF0.31641407363319757
asg5
I0
sba(imatch
Match
p1368
(dp1369
g3
(lp1370
F30.0
aI-1
aI-1
aF45.0
aI-1
aI1
aI0
aF1.3800108814899186
asg5
I0
sba(imatch
Match
p1371
(dp1372
g3
(lp1373
F45.0
aI-1
aI1
aF31.0
aI-1
aI1
aI2
aF9.411004358071976
asg5
I1
sba(imatch
Match
p1374
(dp1375
g3
(lp1376
F40.0
aI-1
aI-1
aF43.0
aI-1
aI-1
aI1
aF2.096371620329148
asg5
I1
sba(imatch
Match
p1377
(dp1378
g3
(lp1379
F30.0
aI-1
aI1
aF39.0
aI-1
aI1
aI2
aF3.1148525461945518
asg5
I1
sba(imatch
Match
p1380
(dp1381
g3
(lp1382
F30.0
aI-1
aI1
aF24.0
aI1
aI-1
aI0
aF0.8653741217142414
asg5
I0
sba(imatch
Match
p1383
(dp1384
g3
(lp1385
F43.0
aI-1
aI-1
aF25.0
aI-1
aI1
aI2
aF0.4350098427206532
asg5
I0
sba(imatch
Match
p1386
(dp1387
g3
(lp1388
F40.0
aI1
aI-1
aF47.0
aI-1
aI1
aI0
aF2.3980611291370977
asg5
I0
sba(imatch
Match
p1389
(dp1390
g3
(lp1391
F43.0
aI-1
aI-1
aF19.0
aI1
aI1
aI0
aF2.0677692707202047
asg5
I0
sba(imatch
Match
p1392
(dp1393
g3
(lp1394
F48.0
aI-1
aI-1
aF45.0
aI1
aI1
aI1
aF1.5364572783253896
asg5
I0
sba(imatch
Match
p1395
(dp1396
g3
(lp1397
F33.0
aI-1
aI-1
aF29.0
aI1
aI-1
aI0
aF4.780811053353801
asg5
I1
sba(imatch
Match
p1398
(dp1399
g3
(lp1400
F45.0
aI-1
aI-1
aF48.0
aI-1
aI-1
aI0
aF0.732877388051622
asg5
I1
sba(imatch
Match
p1401
(dp1402
g3
(lp1403
F21.0
aI1
aI-1
aF27.0
aI-1
aI-1
aI1
aF3.5586279939015735
asg5
I0
sba(imatch
Match
p1404
(dp1405
g3
(lp1406
F30.0
aI-1
aI1
aF32.0
aI-1
aI1
aI1
aF1.4239045941006379
asg5
I1
sba(imatch
Match
p1407
(dp1408
g3
(lp1409
F49.0
aI-1
aI1
aF38.0
aI-1
aI-1
aI0
aF2.879157385963264
asg5
I0
sba(imatch
Match
p1410
(dp1411
g3
(lp1412
F40.0
aI1
aI1
aF42.0
aI-1
aI-1
aI2
aF1.2844490710569823
asg5
I0
sba(imatch
Match
p1413
(dp1414
g3
(lp1415
F21.0
aI-1
aI-1
aF22.0
aI-1
aI-1
aI0
aF0.8057928893956473
asg5
I1
sba(imatch
Match
p1416
(dp1417
g3
(lp1418
F23.0
aI-1
aI-1
aF21.0
aI1
aI1
aI0
aF2.551798686793495
asg5
I0
sba(imatch
Match
p1419
(dp1420
g3
(lp1421
F28.0
aI-1
aI1
aF24.0
aI-1
aI1
aI2
aF2.754651717959406
asg5
I1
sba(imatch
Match
p1422
(dp1423
g3
(lp1424
F24.0
aI-1
aI-1
aF23.0
aI-1
aI1
aI0
aF3.1792731493221478
asg5
I0
sba(imatch
Match
p1425
(dp1426
g3
(lp1427
F19.0
aI-1
aI-1
aF39.0
aI-1
aI-1
aI0
aF5.5884345266743365
asg5
I0
sba(imatch
Match
p1428
(dp1429
g3
(lp1430
F22.0
aI-1
aI-1
aF41.0
aI1
aI-1
aI3
aF1.4401756397304784
asg5
I0
sba(imatch
Match
p1431
(dp1432
g3
(lp1433
F45.0
aI-1
aI-1
aF32.0
aI-1
aI1
aI0
aF5.5884345266743365
asg5
I0
sba(imatch
Match
p1434
(dp1435
g3
(lp1436
F45.0
aI-1
aI-1
aF24.0
aI-1
aI-1
aI0
aF3.9192674656252993
asg5
I0
sba(imatch
Match
p1437
(dp1438
g3
(lp1439
F30.0
aI-1
aI-1
aF36.0
aI-1
aI1
aI1
aF2.902738118501162
asg5
I0
sba(imatch
Match
p1440
(dp1441
g3
(lp1442
F20.0
aI1
aI1
aF18.0
aI-1
aI-1
aI0
aF0.8289138011686781
asg5
I0
sba(imatch
Match
p1443
(dp1444
g3
(lp1445
F20.0
aI-1
aI-1
aF24.0
aI1
aI-1
aI2
aF2.0805848664505806
asg5
I0
sba(imatch
Match
p1446
(dp1447
g3
(lp1448
F39.0
aI-1
aI1
aF49.0
aI-1
aI1
aI2
aF4.188632042783578
asg5
I1
sba(imatch
Match
p1449
(dp1450
g3
(lp1451
F24.0
aI-1
aI-1
aF23.0
aI-1
aI1
aI0
aF0.8057928893956473
asg5
I0
sba(imatch
Match
p1452
(dp1453
g3
(lp1454
F49.0
aI-1
aI-1
aF20.0
aI-1
aI1
aI1
aF1.8574032036968784
asg5
I0
sba(imatch
Match
p1455
(dp1456
g3
(lp1457
F40.0
aI-1
aI1
aF40.0
aI1
aI1
aI2
aF5.866247200751242
asg5
I1
sba(imatch
Match
p1458
(dp1459
g3
(lp1460
F49.0
aI1
aI-1
aF25.0
aI-1
aI-1
aI2
aF6.253376177578364
asg5
I1
sba(imatch
Match
p1461
(dp1462
g3
(lp1463
F37.0
aI-1
aI-1
aF48.0
aI-1
aI1
aI0
aF1.803937528499838
asg5
I0
sba(imatch
Match
p1464
(dp1465
g3
(lp1466
F34.0
aI1
aI-1
aF37.0
aI1
aI-1
aI0
aF0.23543303655998785
asg5
I1
sba(imatch
Match
p1467
(dp1468
g3
(lp1469
F31.0
aI-1
aI1
aF50.0
aI1
aI1
aI1
aF5.633113158992098
asg5
I1
sba(imatch
Match
p1470
(dp1471
g3
(lp1472
F28.0
aI-1
aI-1
aF26.0
aI-1
aI-1
aI0
aF1.7864291356757946
asg5
I1
sba(imatch
Match
p1473
(dp1474
g3
(lp1475
F31.0
aI-1
aI-1
aF46.0
aI-1
aI-1
aI2
aF1.8574032036968784
asg5
I1
sba(imatch
Match
p1476
(dp1477
g3
(lp1478
F30.0
aI-1
aI-1
aF41.0
aI1
aI-1
aI0
aF2.575469254538185
asg5
I1
sba(imatch
Match
p1479
(dp1480
g3
(lp1481
F23.0
aI-1
aI1
aF34.0
aI-1
aI1
aI0
aF0.4017257509128084
asg5
I0
sba(imatch
Match
p1482
(dp1483
g3
(lp1484
F42.0
aI-1
aI-1
aF22.0
aI-1
aI1
aI1
aF1.5305430139673837
asg5
I0
sba(imatch
Match
p1485
(dp1486
g3
(lp1487
F50.0
aI-1
aI-1
aF43.0
aI-1
aI-1
aI3
aF0.5120285728657493
asg5
I1
sba(imatch
Match
p1488
(dp1489
g3
(lp1490
F43.0
aI1
aI-1
aF45.0
aI-1
aI-1
aI1
aF1.7642100408694459
asg5
I1
sba(imatch
Match
p1491
(dp1492
g3
(lp1493
F24.0
aI-1
aI1
aF44.0
aI-1
aI-1
aI0
aF1.3221004508586267
asg5
I0
sba(imatch
Match
p1494
(dp1495
g3
(lp1496
F25.0
aI-1
aI1
aF18.0
aI-1
aI1
aI2
aF2.874171936877401
asg5
I1
sba(imatch
Match
p1497
(dp1498
g3
(lp1499
F39.0
aI-1
aI1
aF39.0
aI-1
aI-1
aI0
aF1.660663010849644
asg5
I0
sba(imatch
Match
p1500
(dp1501
g3
(lp1502
F27.0
aI-1
aI-1
aF20.0
aI-1
aI1
aI1
aF0.0
asg5
I0
sba.