(lp0
(lp1
V02140
p2
aVCondominium
p3
aI1880
aF1.0
aI1
aI3
aI575
aV319291
p4
aa(lp5
V02140
p6
aVCondominium
p7
aI1880
aF1.0
aI1
aI3
aI607
aV320832
p8
aa(lp9
V02140
p10
aVCondominium
p11
aI1880
aF1.0
aI1
aI2
aI433
aV260168
p12
aa(lp13
V02140
p14
aVCondominium
p15
aI1880
aF1.0
aI1
aI3
aI607
aV320830
p16
aa(lp17
V02140
p18
aVCondominium
p19
aI1880
aF1.0
aI2
aI4
aI825
aV369497
p20
aa(lp21
V02140
p22
aVCondominium
p23
aI1880
aF1.0
aI1
aI3
aI607
aV320828
p24
aa(lp25
V02140
p26
aVCondominium
p27
aI1880
aF1.0
aI1
aI3
aI607
aV342832
p28
aa(lp29
V02140
p30
aVCondominium
p31
aI1880
aF1.0
aI1
aI2
aI433
aV259728
p32
aa(lp33
V02140
p34
aVCondominium
p35
aI1880
aF1.0
aI1
aI3
aI607
aV320828
p36
aa(lp37
V02140
p38
aVCondominium
p39
aI1880
aF1.0
aI1
aI3
aI607
aV320835
p40
aa(lp41
V02140
p42
aVCondominium
p43
aI1880
aF1.0
aI1
aI2
aI433
aV260168
p44
aa(lp45
V02140
p46
aVCondominium
p47
aI1880
aF1.0
aI1
aI3
aI607
aV310913
p48
aa(lp49
V02140
p50
aVCondominium
p51
aI1880
aF1.0
aI1
aI3
aI433
aV238439
p52
aa(lp53
V02140
p54
aVCondominium
p55
aI1880
aF1.0
aI1
aI3
aI607
aV320835
p56
aa(lp57
V02140
p58
aVCondominium
p59
aI1880
aF1.0
aI1
aI3
aI607
aV320835
p60
aa(lp61
V02140
p62
aVCondominium
p63
aI1880
aF1.0
aI1
aI2
aI433
aV260168
p64
aa(lp65
V02140
p66
aVCondominium
p67
aI1880
aF1.0
aI1
aI3
aI607
aV320835
p68
aa(lp69
V02140
p70
aVCondominium
p71
aI1880
aF1.0
aI1
aI3
aI607
aV320835
p72
aa(lp73
V02140
p74
aVCondominium
p75
aI1880
aF1.0
aI1
aI2
aI433
aV260168
p76
aa(lp77
V02140
p78
aVCondominium
p79
aI1880
aF1.0
aI1
aI3
aI607
aV320835
p80
aa(lp81
V02140
p82
aVCondominium
p83
aI1880
aF1.0
aI1
aI3
aI607
aV320835
p84
aa(lp85
V02140
p86
aVCondominium
p87
aI1880
aF1.0
aI1
aI2
aI433
aV260168
p88
aa(lp89
V02140
p90
aVCondominium
p91
aI1880
aF1.0
aI1
aI3
aI607
aV320835
p92
aa(lp93
V02138
p94
aVSingleFamily
p95
aI1847
aF1.5
aI2
aI5
aI1461
aV494169
p96
aa(lp97
V02139
p98
aVTriplex
p99
aI1884
aF3.5
aI5
aI11
aI2926
aV898216
p100
aa(lp101
V02138
p102
aVCondominium
p103
aI1920
aF1.0
aI2
aI5
aI963
aV511345
p104
aa(lp105
V02138
p106
aVCondominium
p107
aI1920
aF1.0
aI3
aI5
aI1006
aV522487
p108
aa(lp109
V02138
p110
aVCondominium
p111
aI1920
aF1.0
aI2
aI5
aI1019
aV526595
p112
aa(lp113
V02138
p114
aVCondominium
p115
aI1920
aF1.5
aI2
aI5
aI963
aV521740
p116
aa(lp117
V02138
p118
aVCondominium
p119
aI1920
aF1.5
aI1
aI5
aI1006
aV525088
p120
aa(lp121
V02138
p122
aVCondominium
p123
aI1920
aF1.5
aI1
aI4
aI1019
aV542548
p124
aa(lp125
V02138
p126
aVCondominium
p127
aI1925
aF1.0
aI1
aI3
aI770
aV363651
p128
aa(lp129
V02138
p130
aVCondominium
p131
aI1925
aF1.0
aI1
aI2
aI342
aV238301
p132
aa(lp133
V02138
p134
aVCondominium
p135
aI1925
aF1.0
aI1
aI2
aI380
aV239281
p136
aa(lp137
V02138
p138
aVCondominium
p139
aI1925
aF1.0
aI1
aI2
aI370
aV242051
p140
aa(lp141
V02138
p142
aVCondominium
p143
aI1925
aF1.0
aI1
aI2
aI340
aV237116
p144
aa(lp145
V02138
p146
aVCondominium
p147
aI1925
aF1.0
aI1
aI2
aI355
aV241434
p148
aa(lp149
V02138
p150
aVCondominium
p151
aI1925
aF1.5
aI1
aI2
aI315
aV206392
p152
aa(lp153
V02138
p154
aVCondominium
p155
aI1925
aF1.0
aI1
aI2
aI335
aV233197
p156
aa(lp157
V02138
p158
aVCondominium
p159
aI1925
aF1.0
aI1
aI2
aI286
aV197297
p160
aa(lp161
V02138
p162
aVCondominium
p163
aI1925
aF1.0
aI1
aI2
aI350
aV240858
p164
aa(lp165
V02138
p166
aVCondominium
p167
aI1925
aF1.0
aI1
aI2
aI398
aV251755
p168
aa(lp169
V02138
p170
aVCondominium
p171
aI1925
aF1.0
aI1
aI2
aI434
aV274154
p172
aa(lp173
V02138
p174
aVCondominium
p175
aI1925
aF1.0
aI2
aI4
aI885
aV449207
p176
aa(lp177
V02138
p178
aVCondominium
p179
aI1925
aF1.0
aI1
aI3
aI555
aV315253
p180
aa(lp181
V02138
p182
aVCondominium
p183
aI1925
aF1.0
aI1
aI3
aI780
aV364084
p184
aa(lp185
V02138
p186
aVCondominium
p187
aI1925
aF1.0
aI1
aI3
aI665
aV358304
p188
aa(lp189
V02138
p190
aVCondominium
p191
aI1925
aF1.0
aI1
aI3
aI770
aV363651
p192
aa(lp193
V02138
p194
aVCondominium
p195
aI1925
aF1.0
aI1
aI2
aI370
aV240448
p196
aa(lp197
V02138
p198
aVCondominium
p199
aI1925
aF1.0
aI1
aI3
aI775
aV363749
p200
aa(lp201
V02138
p202
aVCondominium
p203
aI1925
aF1.0
aI2
aI4
aI800
aV369021
p204
aa(lp205
V02138
p206
aVCondominium
p207
aI1925
aF1.0
aI2
aI5
aI1035
aV460710
p208
aa(lp209
V02138
p210
aVCondominium
p211
aI1925
aF1.0
aI1
aI3
aI705
aV362473
p212
aa(lp213
V02138
p214
aVCondominium
p215
aI1925
aF1.0
aI1
aI2
aI395
aV245397
p216
aa(lp217
V02138
p218
aVCondominium
p219
aI1925
aF1.0
aI2
aI4
aI1114
aV496171
p220
aa(lp221
V02138
p222
aVTriplex
p223
aI1916
aF3.5
aI9
aI21
aI6123
aV1905589
p224
aa(lp225
V02140
p226
aVDuplex
p227
aI1894
aF3.5
aI4
aI9
aI2294
aV779050
p228
aa(lp229
V02138
p230
aVDuplex
p231
aI1924
aF2.5
aI4
aI10
aI2184
aV710254
p232
aa(lp233
V02138
p234
aVSingleFamily
p235
aI1925
aF3.0
aI3
aI7
aI4341
aV3500654
p236
aa(lp237
V02140
p238
aVSingleFamily
p239
aI1894
aF2.5
aI4
aI8
aI2508
aV1376371
p240
aa(lp241
V02138
p242
aVSingleFamily
p243
aI1956
aF3.5
aI4
aI10
aI3339
aV1215672
p244
aa(lp245
V02140
p246
aVSingleFamily
p247
aI1899
aF1.5
aI3
aI7
aI1458
aV593106
p248
aa(lp249
V02138
p250
aVDuplex
p251
aI1927
aF2.5
aI4
aI10
aI2531
aV603209
p252
aa(lp253
V02140
p254
aVCondominium
p255
aI1920
aF1.0
aI2
aI5
aI925
aV423529
p256
aa(lp257
V02140
p258
aVCondominium
p259
aI1920
aF1.5
aI1
aI5
aI925
aV411337
p260
aa(lp261
V02140
p262
aVCondominium
p263
aI1920
aF2.0
aI2
aI5
aI1004
aV447210
p264
aa(lp265
V02140
p266
aVCondominium
p267
aI1920
aF1.0
aI2
aI5
aI1004
aV480327
p268
aa(lp269
V02140
p270
aVCondominium
p271
aI1920
aF2.0
aI2
aI5
aI1004
aV459974
p272
aa(lp273
V02140
p274
aVCondominium
p275
aI1920
aF2.0
aI2
aI5
aI1004
aV459974
p276
aa(lp277
V02140
p278
aVCondominium
p279
aI1920
aF1.0
aI2
aI5
aI1004
aV443027
p280
aa(lp281
V02140
p282
aVCondominium
p283
aI1920
aF2.0
aI2
aI5
aI1004
aV490294
p284
aa(lp285
V02138
p286
aVCondominium
p287
aI1900
aF1.0
aI2
aI4
aI952
aV450063
p288
aa(lp289
V02138
p290
aVCondominium
p291
aI1900
aF1.0
aI2
aI5
aI843
aV386075
p292
aa(lp293
V02138
p294
aVCondominium
p295
aI1900
aF1.0
aI2
aI5
aI977
aV454881
p296
aa(lp297
V02138
p298
aVCondominium
p299
aI1900
aF1.5
aI2
aI6
aI1423
aV608374
p300
aa(lp301
V02138
p302
aVSingleFamily
p303
aI1900
aF1.0
aI1
aI3
aI533
aV264109
p304
aa(lp305
V02138
p306
aVCondominium
p307
aI1900
aF1.5
aI1
aI6
aI961
aV449571
p308
aa(lp309
V02138
p310
aVCondominium
p311
aI1900
aF1.5
aI1
aI5
aI874
aV445015
p312
aa(lp313
V02138
p314
aVCondominium
p315
aI1900
aF1.0
aI2
aI5
aI997
aV507190
p316
aa(lp317
V02138
p318
aVCondominium
p319
aI1900
aF1.0
aI2
aI5
aI1100
aV488659
p320
aa(lp321
V02138
p322
aVCondominium
p323
aI1900
aF1.0
aI1
aI2
aI424
aV265602
p324
aa(lp325
V02138
p326
aVCondominium
p327
aI1900
aF1.0
aI2
aI6
aI961
aV449991
p328
aa(lp329
V02138
p330
aVCondominium
p331
aI1900
aF1.0
aI1
aI3
aI874
aV450938
p332
aa(lp333
V02138
p334
aVCondominium
p335
aI1900
aF1.0
aI2
aI6
aI997
aV493670
p336
aa(lp337
V02138
p338
aVCondominium
p339
aI1900
aF1.0
aI4
aI6
aI1100
aV502926
p340
aa(lp341
V02138
p342
aVCondominium
p343
aI1900
aF1.0
aI1
aI2
aI424
aV264564
p344
aa(lp345
V02138
p346
aVCondominium
p347
aI1900
aF1.0
aI1
aI5
aI961
aV467673
p348
aa(lp349
V02138
p350
aVCondominium
p351
aI1900
aF1.0
aI2
aI5
aI874
aV444742
p352
aa(lp353
V02138
p354
aVCondominium
p355
aI1900
aF1.5
aI1
aI4
aI997
aV450491
p356
aa(lp357
V02138
p358
aVCondominium
p359
aI1900
aF1.0
aI2
aI6
aI1100
aV515642
p360
aa(lp361
V02138
p362
aVCondominium
p363
aI1900
aF1.0
aI1
aI2
aI424
aV269024
p364
aa(lp365
V02139
p366
aVCondominium
p367
aI1987
aF2.5
aI3
aI5
aI1440
aV566845
p368
aa(lp369
V02139
p370
aVCondominium
p371
aI1987
aF1.5
aI3
aI5
aI1445
aV544339
p372
aa(lp373
V02139
p374
aVCondominium
p375
aI1987
aF2.5
aI2
aI5
aI1323
aV533696
p376
aa(lp377
V02139
p378
aVCondominium
p379
aI1987
aF1.5
aI2
aI5
aI1371
aV525759
p380
aa(lp381
V02139
p382
aVDuplex
p383
aI1894
aF2.5
aI2
aI6
aI1512
aV568578
p384
aa(lp385
V02139
p386
aVDuplex
p387
aI1873
aF2.5
aI4
aI12
aI1724
aV719439
p388
aa(lp389
V02139
p390
aVDuplex
p391
aI1854
aF2.5
aI4
aI10
aI2376
aV650349
p392
aa(lp393
V02139
p394
aVDuplex
p395
aI1873
aF2.5
aI4
aI8
aI2078
aV611776
p396
aa(lp397
V02138
p398
aVDuplex
p399
aI1909
aF3.5
aI5
aI12
aI2931
aV953215
p400
aa(lp401
V02139
p402
aVSingleFamily
p403
aI1854
aF1.0
aI2
aI12
aI2781
aV824892
p404
aa(lp405
V02138
p406
aVCondominium
p407
aI1880
aF1.0
aI2
aI5
aI1019
aV460302
p408
aa(lp409
V02138
p410
aVCondominium
p411
aI1880
aF1.0
aI2
aI5
aI914
aV444882
p412
aa(lp413
V02138
p414
aVCondominium
p415
aI1880
aF1.0
aI2
aI5
aI1019
aV516079
p416
aa(lp417
V02138
p418
aVCondominium
p419
aI1880
aF1.0
aI2
aI6
aI1039
aV457816
p420
aa(lp421
V02138
p422
aVCondominium
p423
aI1880
aF1.0
aI2
aI5
aI1019
aV460206
p424
aa(lp425
V02138
p426
aVCondominium
p427
aI1880
aF1.5
aI2
aI5
aI1039
aV454329
p428
aa(lp429
V02138
p430
aVCondominium
p431
aI1880
aF1.0
aI2
aI6
aI840
aV378128
p432
aa(lp433
V02140
p434
aVTriplex
p435
aI1897
aF3.0
aI9
aI15
aI3830
aV847524
p436
aa(lp437
V02138
p438
aVCondominium
p439
aI1985
aF1.5
aI2
aI5
aI1278
aV778626
p440
aa(lp441
V02138
p442
aVCondominium
p443
aI1985
aF2.5
aI2
aI5
aI1414
aV936393
p444
aa(lp445
V02138
p446
aVCondominium
p447
aI1985
aF1.5
aI1
aI4
aI1055
aV654131
p448
aa(lp449
V02138
p450
aVCondominium
p451
aI1985
aF1.5
aI2
aI5
aI1040
aV672588
p452
aa(lp453
V02138
p454
aVCondominium
p455
aI1985
aF2.0
aI2
aI4
aI1130
aV703786
p456
aa(lp457
V02138
p458
aVCondominium
p459
aI1985
aF1.0
aI1
aI3
aI1176
aV667094
p460
aa(lp461
V02138
p462
aVCondominium
p463
aI1985
aF2.0
aI2
aI5
aI1130
aV702623
p464
aa(lp465
V02138
p466
aVCondominium
p467
aI1985
aF3.0
aI3
aI5
aI1649
aV1021560
p468
aa(lp469
V02138
p470
aVCondominium
p471
aI1985
aF2.0
aI2
aI4
aI1317
aV1066707
p472
aa(lp473
V02138
p474
aVCondominium
p475
aI1985
aF1.5
aI1
aI4
aI1173
aV686531
p476
aa(lp477
V02138
p478
aVCondominium
p479
aI1985
aF1.0
aI1
aI3
aI992
aV602054
p480
aa(lp481
V02138
p482
aVCondominium
p483
aI1985
aF1.5
aI1
aI4
aI1033
aV647271
p484
aa(lp485
V02138
p486
aVCondominium
p487
aI1985
aF1.5
aI1
aI4
aI1130
aV685369
p488
aa(lp489
V02138
p490
aVCondominium
p491
aI1985
aF2.0
aI2
aI5
aI1414
aV897217
p492
aa(lp493
V02138
p494
aVCondominium
p495
aI1985
aF2.0
aI2
aI4
aI1440
aV911894
p496
aa(lp497
V02138
p498
aVCondominium
p499
aI1985
aF1.5
aI2
aI4
aI1040
aV630408
p500
aa(lp501
V02138
p502
aVCondominium
p503
aI1985
aF2.0
aI2
aI5
aI1130
aV702543
p504
aa(lp505
V02138
p506
aVCondominium
p507
aI1985
aF2.0
aI2
aI4
aI1436
aV911355
p508
aa(lp509
V02138
p510
aVCondominium
p511
aI1985
aF2.0
aI2
aI5
aI1130
aV702556
p512
aa(lp513
V02138
p514
aVCondominium
p515
aI1985
aF2.0
aI2
aI4
aI1389
aV900764
p516
aa(lp517
V02138
p518
aVCondominium
p519
aI1985
aF2.0
aI2
aI4
aI1317
aV833218
p520
aa(lp521
V02138
p522
aVCondominium
p523
aI1985
aF1.5
aI1
aI5
aI1133
aV686587
p524
aa(lp525
V02138
p526
aVCondominium
p527
aI1985
aF1.0
aI2
aI3
aI992
aV622206
p528
aa(lp529
V02138
p530
aVCondominium
p531
aI1985
aF1.5
aI1
aI4
aI1033
aV655363
p532
aa(lp533
V02138
p534
aVCondominium
p535
aI1985
aF2.5
aI2
aI5
aI1440
aV950728
p536
aa(lp537
V02141
p538
aVSingleFamily
p539
aI1984
aF2.5
aI3
aI6
aI1248
aV554497
p540
aa(lp541
V02139
p542
aVCondominium
p543
aI1996
aF1.5
aI3
aI6
aI1243
aV299294
p544
aa(lp545
V02138
p546
aVCondominium
p547
aI1880
aF1.0
aI2
aI7
aI1100
aV538937
p548
aa(lp549
V02138
p550
aVCondominium
p551
aI1880
aF1.5
aI3
aI7
aI1100
aV614936
p552
aa(lp553
V02139
p554
aVDuplex
p555
aI1873
aF3.5
aI4
aI8
aI2583
aV907890
p556
aa(lp557
V02139
p558
aVDuplex
p559
aI1854
aF3.5
aI6
aI12
aI2774
aV826346
p560
aa(lp561
V02139
p562
aVSingleFamily
p563
aI1873
aF1.5
aI2
aI5
aI1551
aV513882
p564
aa(lp565
V02138
p566
aVSingleFamily
p567
aI2009
aF3.5
aI4
aI8
aI4062
aV3098283
p568
aa(lp569
V02138
p570
aVSingleFamily
p571
aI1948
aF1.5
aI3
aI6
aI1008
aV391559
p572
aa(lp573
V02139
p574
aVCondominium
p575
aI1903
aF1.0
aI3
aI5
aI920
aV378593
p576
aa(lp577
V02139
p578
aVTriplex
p579
aI1903
aF3.5
aI7
aI18
aI4018
aV961403
p580
aa(lp581
V02140
p582
aVCondominium
p583
aI1998
aF1.0
aI1
aI2
aI424
aV188892
p584
aa(lp585
V02140
p586
aVCondominium
p587
aI1998
aF1.0
aI1
aI2
aI277
aV186224
p588
aa(lp589
V02140
p590
aVCondominium
p591
aI1998
aF1.0
aI1
aI2
aI187
aV175582
p592
aa(lp593
V02140
p594
aVCondominium
p595
aI1998
aF1.0
aI1
aI2
aI141
aV175350
p596
aa(lp597
V02140
p598
aVCondominium
p599
aI1998
aF1.0
aI1
aI2
aI151
aV175200
p600
aa(lp601
V02140
p602
aVCondominium
p603
aI1998
aF1.0
aI1
aI2
aI418
aV307286
p604
aa(lp605
V02140
p606
aVCondominium
p607
aI1998
aF1.0
aI1
aI3
aI610
aV351074
p608
aa(lp609
V02140
p610
aVCondominium
p611
aI1998
aF1.0
aI1
aI3
aI672
aV371189
p612
aa(lp613
V02140
p614
aVCondominium
p615
aI1998
aF1.0
aI2
aI4
aI752
aV216489
p616
aa(lp617
V02140
p618
aVCondominium
p619
aI1998
aF1.0
aI2
aI5
aI682
aV378388
p620
aa(lp621
V02140
p622
aVCondominium
p623
aI1998
aF1.0
aI1
aI4
aI670
aV370454
p624
aa(lp625
V02140
p626
aVCondominium
p627
aI1998
aF1.0
aI1
aI3
aI672
aV367770
p628
aa(lp629
V02140
p630
aVCondominium
p631
aI1998
aF1.0
aI2
aI4
aI752
aV400023
p632
aa(lp633
V02140
p634
aVCondominium
p635
aI1998
aF1.5
aI2
aI4
aI897
aV494062
p636
aa(lp637
V02140
p638
aVCondominium
p639
aI1998
aF1.0
aI2
aI4
aI914
aV456199
p640
aa(lp641
V02140
p642
aVCondominium
p643
aI1998
aF1.0
aI2
aI5
aI914
aV464995
p644
aa(lp645
V02140
p646
aVCondominium
p647
aI1998
aF1.0
aI3
aI4
aI1103
aV542566
p648
aa(lp649
V02140
p650
aVCondominium
p651
aI1998
aF1.0
aI3
aI5
aI1105
aV542965
p652
aa(lp653
V02140
p654
aVCondominium
p655
aI1998
aF1.0
aI2
aI4
aI913
aV465039
p656
aa(lp657
V02140
p658
aVCondominium
p659
aI1998
aF1.0
aI3
aI5
aI1124
aV540792
p660
aa(lp661
V02140
p662
aVCondominium
p663
aI1998
aF1.0
aI3
aI5
aI1142
aV557248
p664
aa(lp665
V02140
p666
aVCondominium
p667
aI1998
aF1.0
aI3
aI5
aI1105
aV538772
p668
aa(lp669
V02140
p670
aVCondominium
p671
aI1998
aF1.0
aI3
aI5
aI1230
aV579627
p672
aa(lp673
V02140
p674
aVCondominium
p675
aI1998
aF2.0
aI4
aI6
aI1406
aV660161
p676
aa(lp677
V02140
p678
aVCondominium
p679
aI1998
aF1.0
aI3
aI5
aI1095
aV533811
p680
aa(lp681
V02139
p682
aVDuplex
p683
aI1854
aF3.5
aI6
aI12
aI2774
aV826346
p684
aa(lp685
V02138
p686
aVCondominium
p687
aI1900
aF1.5
aI2
aI6
aI1174
aV513436
p688
aa(lp689
V02138
p690
aVCondominium
p691
aI1900
aF1.5
aI2
aI6
aI1115
aV521822
p692
aa(lp693
V02138
p694
aVCondominium
p695
aI1900
aF1.5
aI2
aI6
aI1172
aV512986
p696
aa(lp697
V02138
p698
aVCondominium
p699
aI1900
aF1.0
aI2
aI6
aI1115
aV491532
p700
aa(lp701
V02138
p702
aVCondominium
p703
aI1900
aF1.5
aI2
aI5
aI1171
aV512840
p704
aa(lp705
V02138
p706
aVCondominium
p707
aI1900
aF1.5
aI2
aI6
aI1172
aV501776
p708
aa(lp709
V02138
p710
aVCondominium
p711
aI1900
aF1.5
aI2
aI6
aI1172
aV512946
p712
aa(lp713
V02138
p714
aVCondominium
p715
aI1900
aF1.5
aI2
aI6
aI1119
aV502834
p716
aa.