(dp0
S'raining'
p1
I1
sS'legacies'
p2
I1
sS'child'
p3
I4
sS'felt'
p4
I2
sS'four'
p5
I14
sS'protest'
p6
I2
sS'thirst'
p7
I1
sS'tenuous'
p8
I1
sS'oldest'
p9
I1
sS'hate'
p10
I1
sS'gabrielle'
p11
I4
sS'consider'
p12
I1
sS'whose'
p13
I2
sS'sanford'
p14
I4
sS'pedro'
p15
I1
sS'vile'
p16
I1
sS'paris'
p17
I1
sS'poorest'
p18
I1
sS'zuma'
p19
I1
sS'edward'
p20
I24
sS'voted'
p21
I1
sS'under'
p22
I4
sS'worth'
p23
I1
sS'risk'
p24
I3
sS'rise'
p25
I3
sS'stolen'
p26
I1
sS'every'
p27
I1
sS'updates'
p28
I1
sS'messy'
p29
I1
sS'unify'
p30
I1
sS'anemic'
p31
I1
sS'encounter'
p32
I2
sS'believed'
p33
I4
sS'school'
p34
I8
sS'magnate'
p35
I3
sS'presidency'
p36
I1
sS'wooden'
p37
I1
sS'cause'
p38
I2
sS'companies'
p39
I1
sS'wednesday'
p40
I6
sS'commute'
p41
I2
sS'wexford'
p42
I1
sS'asian'
p43
I1
sS'force'
p44
I2
sS'leaders'
p45
I8
sS'consistent'
p46
I1
sS'welfare'
p47
I1
sS'pubic'
p48
I1
sS'budget'
p49
I1
sS'chef'
p50
I1
sS'cameron'
p51
I1
sS'second'
p52
I2
sS'street'
p53
I8
sS'jokesters'
p54
I1
sS'estimated'
p55
I1
sS'even'
p56
I2
sS'hide'
p57
I1
sS'ruben'
p58
I1
sS'decisions'
p59
I1
sS'beaten'
p60
I2
sS'weren'
p61
I1
sS'asia'
p62
I3
sS'decoding'
p63
I1
sS'spokesman'
p64
I2
sS'correa'
p65
I3
sS'above'
p66
I2
sS'toll'
p67
I1
sS'supplier'
p68
I2
sS'ever'
p69
I1
sS'seeks'
p70
I6
sS'told'
p71
I6
sS'philippe'
p72
I3
sS'evolving'
p73
I1
sS'hero'
p74
I5
sS'felicia'
p75
I2
sS'never'
p76
I5
sS'here'
p77
I3
sS'hundreds'
p78
I3
sS'conglomerate'
p79
I1
sS'reported'
p80
I6
sS'oceans'
p81
I1
sS'feeding'
p82
I2
sS'china'
p83
I20
sS'nanny'
p84
I2
sS'active'
p85
I1
sS'path'
p86
I2
sS'hell'
p87
I1
sS'generals'
p88
I1
sS'daughter'
p89
I4
sS'backpacking'
p90
I1
sS'employees'
p91
I2
sS'envoy'
p92
I1
sS'approaches'
p93
I1
sS'reports'
p94
I15
sS'ignoring'
p95
I1
sS'electricity'
p96
I1
sS'chrysler'
p97
I1
sS'military'
p98
I16
sS'mistake'
p99
I2
sS'changes'
p100
I5
sS'intrigue'
p101
I1
sS'vacations'
p102
I1
sS'criticism'
p103
I2
sS'golden'
p104
I1
sS'invasion'
p105
I1
sS'campaign'
p106
I7
sS'explained'
p107
I1
sS'reagan'
p108
I1
sS'visibly'
p109
I1
sS'julia'
p110
I2
sS'highly'
p111
I2
sS'brought'
p112
I3
sS'thursday'
p113
I2
sS'punching'
p114
I1
sS'counts'
p115
I1
sS'cocaine'
p116
I2
sS'opponents'
p117
I3
sS'plot'
p118
I2
sS'would'
p119
I18
sS'army'
p120
I10
sS'liftoff'
p121
I12
sS'hospital'
p122
I6
sS'mexico'
p123
I2
sS'ploy'
p124
I1
sS'arms'
p125
I2
sS'accommodation'
p126
I1
sS'leaks'
p127
I2
sS'call'
p128
I7
sS'asset'
p129
I1
sS'spike'
p130
I1
sS'strike'
p131
I7
sS'robertson'
p132
I1
sS'until'
p133
I4
sS'snowden'
p134
I46
sS'supporters'
p135
I1
sS'holy'
p136
I2
sS'evening'
p137
I2
sS'oscar'
p138
I1
sS'aware'
p139
I1
sS'phone'
p140
I1
sS'berlin'
p141
I1
sS'shelters'
p142
I1
sS'vegetal'
p143
I1
sS'hold'
p144
I1
sS'must'
p145
I7
sS'sluggish'
p146
I1
sS'word'
p147
I4
sS'room'
p148
I2
sS'rights'
p149
I10
sS'1998'
p150
I2
sS'famed'
p151
I1
sS'work'
p152
I7
sS'plunged'
p153
I1
sS'rulings'
p154
I2
sS'advocacy'
p155
I1
sS'movies'
p156
I1
sS'temperatures'
p157
I1
sS'already'
p158
I4
sS'zimbabwe'
p159
I1
sS'transition'
p160
I1
sS'wang'
p161
I1
sS'estate'
p162
I1
sS'give'
p163
I5
sS'cited'
p164
I1
sS'india'
p165
I10
sS'currency'
p166
I1
sS'reviewing'
p167
I1
sS'want'
p168
I2
sS'appointment'
p169
I2
sS'david'
p170
I2
sS'returned'
p171
I1
sS'ceremony'
p172
I1
sS'aging'
p173
I1
sS'joann'
p174
I1
sS'iggy'
p175
I2
sS'glonass'
p176
I1
sS'thing'
p177
I1
sS'provide'
p178
I3
sS'travel'
p179
I1
sS'sitting'
p180
I1
sS'kabul'
p181
I7
sS'writers'
p182
I1
sS'accusations'
p183
I2
sS'toxic'
p184
I2
sS'gate'
p185
I2
sS'ordinary'
p186
I2
sS'resignation'
p187
I6
sS'gordon'
p188
I1
sS'becky'
p189
I2
sS'description'
p190
I1
sS'beauty'
p191
I1
sS'mess'
p192
I1
sS'after'
p193
I53
sS'hong'
p194
I5
sS'demanding'
p195
I3
sS'customs'
p196
I1
sS'wrong'
p197
I1
sS'poughkeepsie'
p198
I1
sS'president'
p199
I41
sS'lesbian'
p200
I1
sS'siberia'
p201
I1
sS'attempt'
p202
I2
sS'third'
p203
I3
sS'amid'
p204
I4
sS'dealer'
p205
I3
sS'headquarters'
p206
I1
sS'think'
p207
I2
sS'coelho'
p208
I1
sS'mursi'
p209
I3
sS'unlawfully'
p210
I1
sS'scarf'
p211
I1
sS'enter'
p212
I4
sS'democratic'
p213
I4
sS'order'
p214
I3
sS'triggering'
p215
I1
sS'wine'
p216
I1
sS'operations'
p217
I1
sS'office'
p218
I5
sS'over'
p219
I27
sS'derides'
p220
I1
sS'london'
p221
I12
sS'sheikhs'
p222
I1
sS'affect'
p223
I1
sS'japan'
p224
I4
sS'mayor'
p225
I2
sS'before'
p226
I9
sS'difference'
p227
I1
sS'personal'
p228
I2
sS'striking'
p229
I2
sS'denver'
p230
I2
sS'crew'
p231
I1
sS'better'
p232
I6
sS'sexily'
p233
I2
sS'2020'
p234
I1
sS'weeks'
p235
I3
sS'eugene'
p236
I1
sS'donors'
p237
I2
sS'them'
p238
I11
sS'iowa'
p239
I1
sS'bans'
p240
I1
sS'break'
p241
I3
sS'hispanics'
p242
I1
sS'strolled'
p243
I1
sS'effects'
p244
I2
sS'aborted'
p245
I1
sS'schools'
p246
I1
sS'baking'
p247
I1
sS'township'
p248
I1
sS'shirk'
p249
I1
sS'bank'
p250
I13
sS'rages'
p251
I1
sS'rocky'
p252
I2
sS'arrested'
p253
I6
sS'detroit'
p254
I3
sS'rocks'
p255
I1
sS'explode'
p256
I1
sS'frantically'
p257
I1
sS'capricious'
p258
I2
sS'each'
p259
I4
sS'addicted'
p260
I1
sS'commissioners'
p261
I2
sS'went'
p262
I4
sS'side'
p263
I4
sS'bond'
p264
I1
sS'consolidate'
p265
I1
sS'shuttle'
p266
I2
sS'financial'
p267
I3
sS'meets'
p268
I2
sS'statue'
p269
I2
sS'series'
p270
I4
sS'gymnasium'
p271
I1
sS'january'
p272
I1
sS'vinexpo'
p273
I1
sS'used'
p274
I3
sS'trading'
p275
I2
sS'aids'
p276
I2
sS'flock'
p277
I1
sS'slew'
p278
I1
sS'hospitalized'
p279
I2
sS'overcame'
p280
I1
sS'kiev'
p281
I1
sS'driving'
p282
I1
sS'oprah'
p283
I1
sS'content'
p284
I1
sS'daniel'
p285
I1
sS'adapt'
p286
I2
sS'medicine'
p287
I1
sS'surprise'
p288
I1
sS'clamps'
p289
I1
sS'venezuela'
p290
I4
sS'arizona'
p291
I10
sS'assaults'
p292
I1
sS'barrier'
p293
I1
sS'resume'
p294
I2
sS'concluded'
p295
I2
sS'threatened'
p296
I1
sS'revenge'
p297
I1
sS'free'
p298
I6
sS'standard'
p299
I3
sS'kayla'
p300
I1
sS'vets'
p301
I1
sS'struggle'
p302
I1
sS'egyptians'
p303
I2
sS'wanted'
p304
I4
sS'heat'
p305
I1
sS'wedeman'
p306
I1
sS'exposing'
p307
I2
sS'piecemeal'
p308
I1
sS'created'
p309
I1
sS'refugee'
p310
I2
sS'days'
p311
I5
sS'priorities'
p312
I1
sS'corrections'
p313
I1
sS'cooperating'
p314
I2
sS'bite'
p315
I3
sS'speeds'
p316
I1
sS'organize'
p317
I1
sS'angelic'
p318
I1
sS'features'
p319
I2
sS'elmo'
p320
I2
sS'grade'
p321
I3
sS'reassure'
p322
I1
sS'petraeus'
p323
I1
sS'rank'
p324
I1
sS'hearing'
p325
I3
sS'spinning'
p326
I1
sS'another'
p327
I8
sS'titled'
p328
I1
sS'thick'
p329
I1
sS'electronic'
p330
I1
sS'hood'
p331
I2
sS'specially'
p332
I1
sS'mercury'
p333
I2
sS'service'
p334
I4
sS'rejects'
p335
I1
sS'lawsuits'
p336
I3
sS'girls'
p337
I11
sS'rates'
p338
I2
sS'witnessing'
p339
I1
sS'wildly'
p340
I1
sS'hollywood'
p341
I3
sS'john'
p342
I6
sS'militancy'
p343
I1
sS'murder'
p344
I4
sS'collapse'
p345
I1
sS'villages'
p346
I2
sS'leaking'
p347
I4
sS'took'
p348
I5
sS'exhilarating'
p349
I1
sS'western'
p350
I5
sS'palsy'
p351
I1
sS'shortly'
p352
I2
sS'lunged'
p353
I3
sS'begins'
p354
I2
sS'trek'
p355
I1
sS'peril'
p356
I1
sS'target'
p357
I1
sS'rampage'
p358
I1
sS'xinjian'
p359
I1
sS'hike'
p360
I4
sS'morphed'
p361
I1
sS'immigrants'
p362
I1
sS'zero'
p363
I3
sS'nations'
p364
I7
sS'project'
p365
I1
sS'classes'
p366
I2
sS'williams'
p367
I2
sS'feeling'
p368
I1
sS'stacey'
p369
I1
sS'mini'
p370
I1
sS'failing'
p371
I1
sS'muqdadiya'
p372
I1
sS'willingness'
p373
I1
sS'boston'
p374
I5
sS'mind'
p375
I1
sS'reassert'
p376
I1
sS'brawny'
p377
I1
sS'stalls'
p378
I1
sS'seen'
p379
I4
sS'seem'
p380
I2
sS'seek'
p381
I6
sS'tells'
p382
I5
sS'dozen'
p383
I4
sS'forced'
p384
I4
sS'forgive'
p385
I1
sS'traditionally'
p386
I1
sS'person'
p387
I1
sS'bleachers'
p388
I1
sS'responsible'
p389
I1
sS'overtook'
p390
I1
sS'luxury'
p391
I1
sS'forces'
p392
I7
sS'curfew'
p393
I2
sS'kremlin'
p394
I2
sS'transactions'
p395
I1
sS'rappers'
p396
I1
sS'regular'
p397
I1
sS'germany'
p398
I4
sS'letter'
p399
I3
sS'hearts'
p400
I2
sS'navarrette'
p401
I1
sS'drought'
p402
I1
sS'grave'
p403
I1
sS'prostitute'
p404
I1
sS'special'
p405
I3
sS'airasia'
p406
I1
sS'tanzania'
p407
I7
sS'camp'
p408
I3
sS'crowd'
p409
I1
sS'accounted'
p410
I1
sS'pimco'
p411
I1
sS'throwaway'
p412
I1
sS'responded'
p413
I1
sS'came'
p414
I1
sS'reserve'
p415
I1
sS'freak'
p416
I1
sS'saying'
p417
I8
sS'deer660'
p418
I1
sS'bomb'
p419
I7
sS'saga'
p420
I2
sS'probe'
p421
I2
sS'teresa'
p422
I1
sS'ending'
p423
I1
sS'qaeda'
p424
I3
sS'batrovci'
p425
I1
sS'stepping'
p426
I1
sS'hungary'
p427
I2
sS'thirds'
p428
I1
sS'traditions'
p429
I1
sS'herself'
p430
I1
sS'delays'
p431
I1
sS'unemployment'
p432
I1
sS'bust'
p433
I4
sS'kessler'
p434
I1
sS'bush'
p435
I16
sS'statehouse'
p436
I1
sS'geologist'
p437
I1
sS'touched'
p438
I2
sS'rich'
p439
I1
sS'pursuing'
p440
I1
sS'predecessor'
p441
I4
sS'asians'
p442
I1
sS'criticizes'
p443
I1
sS'scientists'
p444
I1
sS'watch'
p445
I8
sS'uighurs'
p446
I1
sS'legs'
p447
I1
sS'coast'
p448
I2
sS'criticized'
p449
I1
sS'windblown'
p450
I1
sS'watson'
p451
I1
sS'libidos'
p452
I1
sS'despite'
p453
I3
sS'report'
p454
I6
sS'wzzm'
p455
I1
sS'sandy'
p456
I1
sS'xinjiang'
p457
I2
sS'countries'
p458
I9
sS'optimistic'
p459
I2
sS'guns'
p460
I2
sS'twice'
p461
I1
sS'bigoted'
p462
I1
sS'insurgents'
p463
I2
sS'bashar'
p464
I3
sS'fertility'
p465
I2
sS'boarded'
p466
I1
sS'secretary'
p467
I4
sS'respond'
p468
I1
sS'sanderlin'
p469
I1
sS'blew'
p470
I2
sS'decides'
p471
I1
sS'victim'
p472
I2
sS'swept'
p473
I1
sS'nyberg'
p474
I1
sS'roadmap'
p475
I1
sS'checks'
p476
I2
sS'decided'
p477
I1
sS'result'
p478
I1
sS'mahmoud'
p479
I1
sS'fail'
p480
I1
sS'christian'
p481
I5
sS'resigned'
p482
I3
sS'best'
p483
I8
sS'brazil'
p484
I6
sS'voyage'
p485
I1
sS'said'
p486
I39
sS'lots'
p487
I1
sS'away'
p488
I3
sS'mismanaging'
p489
I1
sS'injuries'
p490
I1
sS'stamps'
p491
I1
sS'future'
p492
I4
sS'occupational'
p493
I1
sS'approach'
p494
I1
sS'rusnok'
p495
I2
sS'terms'
p496
I1
sS'nationwide'
p497
I1
sS'nature'
p498
I1
sS'restricting'
p499
I1
sS'weak'
p500
I1
sS'however'
p501
I2
sS'boss'
p502
I2
sS'embody'
p503
I1
sS'drew'
p504
I1
sS'recent'
p505
I5
sS'news'
p506
I42
sS'picking'
p507
I1
sS'debt'
p508
I1
sS'suggested'
p509
I1
sS'received'
p510
I2
sS'protect'
p511
I3
sS'accident'
p512
I1
sS'hostens'
p513
I1
sS'brown'
p514
I1
sS'country'
p515
I17
sS'himalayas'
p516
I1
sS'against'
p517
I12
sS'players'
p518
I2
sS'protection'
p519
I1
sS'ramadan'
p520
I2
sS'requests'
p521
I5
sS'donnell'
p522
I1
sS'asked'
p523
I1
sS'standings'
p524
I1
sS'tone'
p525
I1
sS'islamists'
p526
I2
sS'character'
p527
I1
sS'vast'
p528
I1
sS'tons'
p529
I1
sS'gleaming'
p530
I1
sS'pregnancy'
p531
I1
sS'loaded'
p532
I2
sS'beheaded'
p533
I2
sS'trust'
p534
I2
sS'iraq'
p535
I5
sS'targeting'
p536
I2
sS'jobless'
p537
I1
sS'asks'
p538
I1
sS'mobilization'
p539
I1
sS'union'
p540
I4
sS'claiming'
p541
I3
sS'three'
p542
I9
sS'been'
p543
I20
sS'blower'
p544
I1
sS'commission'
p545
I2
sS'much'
p546
I7
sS'interest'
p547
I1
sS'expected'
p548
I5
sS'captives'
p549
I2
sS'entered'
p550
I1
sS'dozens'
p551
I10
sS'fuad'
p552
I1
sS'idol'
p553
I2
sS'teenager'
p554
I3
sS'website'
p555
I3
sS'life'
p556
I12
sS'families'
p557
I3
sS'justices'
p558
I1
sS'attacked'
p559
I2
sS'drugs'
p560
I4
sS'republicans'
p561
I2
sS'fizzle'
p562
I1
sS'kids'
p563
I4
sS'doubts'
p564
I1
sS'catch'
p565
I1
sS'worked'
p566
I2
sS'slowdown'
p567
I1
sS'tide'
p568
I1
sS'save'
p569
I1
sS'publicly'
p570
I1
sS'cousteau'
p571
I4
sS'pungent'
p572
I1
sS'nominate'
p573
I1
sS'near'
p574
I6
sS'applies'
p575
I1
sS'voice'
p576
I5
sS'study'
p577
I1
sS'procedure'
p578
I1
sS'weakens'
p579
I1
sS'spawn'
p580
I1
sS'seven'
p581
I2
sS'eden'
p582
I1
sS'played'
p583
I1
sS'indonesian'
p584
I1
sS'exchanging'
p585
I1
sS'australia'
p586
I1
sS'march'
p587
I6
sS'controversy'
p588
I2
sS'grown'
p589
I1
sS'memorial'
p590
I3
sS'perform'
p591
I1
sS'apparently'
p592
I1
sS'make'
p593
I14
sS'lingerie'
p594
I1
sS'jerry'
p595
I1
sS'ribal'
p596
I1
sS'stickier'
p597
I1
sS'dean'
p598
I1
sS'extremes'
p599
I1
sS'inventory'
p600
I1
sS'passos'
p601
I1
sS'avoids'
p602
I1
sS'several'
p603
I3
sS'convictions'
p604
I1
sS'grows'
p605
I1
sS'european'
p606
I13
sS'independent'
p607
I1
sS'satellite'
p608
I1
sS'smoke'
p609
I1
sS'inadvertently'
p610
I1
sS'swell'
p611
I1
sS'portas'
p612
I3
sS'rail'
p613
I2
sS'rain'
p614
I1
sS'noor'
p615
I1
sS'bloomberg'
p616
I4
sS'rulebook'
p617
I1
sS'opportunity'
p618
I1
sS'understand'
p619
I1
sS'kept'
p620
I1
sS'programs'
p621
I5
sS'groundswell'
p622
I1
sS'ocean'
p623
I2
sS'practices'
p624
I3
sS'greatest'
p625
I2
sS'mother'
p626
I2
sS'claims'
p627
I2
sS'garst'
p628
I1
sS'camps'
p629
I1
sS'musical'
p630
I1
sS'left'
p631
I9
sS'joshua'
p632
I1
sS'jurisdictions'
p633
I1
sS'capitol'
p634
I1
sS'just'
p635
I13
sS'sentence'
p636
I1
sS'quotes'
p637
I1
sS'financially'
p638
I2
sS'identify'
p639
I1
sS'human'
p640
I14
sS'facts'
p641
I1
sS'plight'
p642
I1
sS'portrayed'
p643
I1
sS'mohamed'
p644
I10
sS'jose'
p645
I2
sS'transformer'
p646
I1
sS'enters'
p647
I1
sS'myanmar'
p648
I3
sS'ease'
p649
I1
sS'royal'
p650
I4
sS'cinematographers'
p651
I1
sS'squad'
p652
I3
sS'transformed'
p653
I1
sS'board'
p654
I1
sS'beloved'
p655
I2
sS'prison'
p656
I1
sS'brumberg'
p657
I1
sS'east'
p658
I5
sS'humanity'
p659
I1
sS'gave'
p660
I1
sS'grounding'
p661
I1
sS'jeantel'
p662
I1
sS'melting'
p663
I2
sS'breaks'
p664
I1
sS'possible'
p665
I4
sS'arab'
p666
I7
sS'resembling'
p667
I1
sS'cultural'
p668
I1
sS'injuring'
p669
I1
sS'gridlock'
p670
I2
sS'birth'
p671
I3
sS'judge'
p672
I7
sS'advanced'
p673
I2
sS'apart'
p674
I1
sS'desire'
p675
I1
sS'county'
p676
I3
sS'strengths'
p677
I1
sS'tendered'
p678
I1
sS'hunt'
p679
I1
sS'specific'
p680
I1
sS'alamo'
p681
I1
sS'steps'
p682
I3
sS'officer'
p683
I6
sS'night'
p684
I6
sS'security'
p685
I12
sS'attorney'
p686
I1
sS'right'
p687
I14
sS'honored'
p688
I1
sS'korea'
p689
I3
sS'people'
p690
I26
sS'czech'
p691
I2
sS'dead'
p692
I3
sS'jennifer'
p693
I1
sS'born'
p694
I3
sS'donald'
p695
I1
sS'meters'
p696
I1
sS'election'
p697
I3
sS'dear'
p698
I1
sS'harassment'
p699
I2
sS'glance'
p700
I1
sS'denies'
p701
I2
sS'total'
p702
I1
sS'humor'
p703
I1
sS'richer'
p704
I2
sS'outspoken'
p705
I1
sS'comments'
p706
I2
sS'everything'
p707
I1
sS'asking'
p708
I1
sS'denied'
p709
I1
sS'convict'
p710
I1
sS'beating'
p711
I2
sS'adorable'
p712
I1
sS'hindu'
p713
I2
sS'espionage'
p714
I1
sS'holiday'
p715
I3
sS'columbus'
p716
I1
sS'bold'
p717
I1
sS'brawl'
p718
I3
sS'pose'
p719
I1
sS'jester'
p720
I2
sS'topinka'
p721
I1
sS'ivan'
p722
I1
sS'firemen'
p723
I1
sS'swayamsevak'
p724
I2
sS'losing'
p725
I1
sS'memorable'
p726
I1
sS'post'
p727
I8
sS'manufacturing'
p728
I1
sS'takes'
p729
I4
sS'attacks'
p730
I3
sS'dollars'
p731
I1
sS'months'
p732
I4
sS'accepts'
p733
I1
sS'jamjoom'
p734
I1
sS'essential'
p735
I1
sS'dinner'
p736
I1
sS'connected'
p737
I3
sS'efforts'
p738
I2
sS'palestinians'
p739
I1
sS'jacques'
p740
I1
sS'trafficker'
p741
I1
sS'raised'
p742
I1
sS'managers'
p743
I3
sS'facility'
p744
I3
sS'wasting'
p745
I1
sS'honeymoon'
p746
I1
sS'profession'
p747
I1
sS'rockfish'
p748
I1
sS'baikonur'
p749
I1
sS'down'
p750
I15
sS'fumes'
p751
I1
sS'greenland'
p752
I2
sS'tribune'
p753
I3
sS'raises'
p754
I2
sS'wrap'
p755
I1
sS'1990s'
p756
I1
sS'refined'
p757
I1
sS'renovating'
p758
I1
sS'deal'
p759
I3
sS'mothership'
p760
I1
sS'support'
p761
I4
sS'tennis'
p762
I1
sS'vision'
p763
I1
sS'tame'
p764
I1
sS'economix'
p765
I1
sS'anderson'
p766
I3
sS'trayvon'
p767
I8
sS'crews'
p768
I5
sS'resulted'
p769
I2
sS'bolivia'
p770
I1
sS'pals'
p771
I1
sS'telegraph'
p772
I3
sS'fork'
p773
I1
sS'head'
p774
I4
sS'amateur'
p775
I1
sS'offering'
p776
I2
sS'offer'
p777
I2
sS'attempted'
p778
I3
sS'becoming'
p779
I1
sS'differences'
p780
I2
sS'landing'
p781
I1
sS'dealbook'
p782
I4
sS'hemisphere'
p783
I2
sS'hear'
p784
I1
sS'indiana'
p785
I1
sS'blindness'
p786
I1
sS'restive'
p787
I1
sS'fort'
p788
I3
sS'injury'
p789
I1
sS'builds'
p790
I1
sS'entertainers'
p791
I1
sS'markets'
p792
I1
sS'inside'
p793
I4
sS'morning'
p794
I3
sS'staged'
p795
I1
sS'mannequins'
p796
I4
sS'devices'
p797
I2
sS'tell'
p798
I1
sS'vanguard'
p799
I1
sS'main'
p800
I1
sS'lays'
p801
I1
sS'vatican'
p802
I8
sS'emotional'
p803
I1
sS'bide'
p804
I1
sS'emir'
p805
I3
sS'recalling'
p806
I1
sS'passenger'
p807
I1
sS'juvenile'
p808
I1
sS'looms'
p809
I4
sS'bitcoins'
p810
I2
sS'fury'
p811
I1
sS'stronger'
p812
I3
sS'mirror'
p813
I1
sS'drive'
p814
I1
sS'exist'
p815
I1
sS'tarnished'
p816
I1
sS'ship'
p817
I1
sS'trip'
p818
I6
sS'negotiations'
p819
I1
sS'physical'
p820
I1
sS'palestinian'
p821
I7
sS'marking'
p822
I1
sS'weakened'
p823
I1
sS'when'
p824
I16
sS'actor'
p825
I1
sS'reality'
p826
I2
sS'beheading'
p827
I4
sS'role'
p828
I3
sS'protester'
p829
I2
sS'digital'
p830
I1
sS'test'
p831
I1
sS'developers'
p832
I1
sS'smell'
p833
I1
sS'trafficking'
p834
I4
sS'cleric'
p835
I1
sS'phoenix'
p836
I1
sS'helps'
p837
I1
sS'dies'
p838
I2
sS'football'
p839
I1
sS'illogic'
p840
I1
sS'update'
p841
I1
sS'journey'
p842
I1
sS'refusing'
p843
I1
sS'authorities'
p844
I9
sS'transfers'
p845
I1
sS'weekend'
p846
I3
sS'died'
p847
I6
sS'billion'
p848
I7
sS'younger'
p849
I2
sS'faster'
p850
I2
sS'apology'
p851
I2
sS'vigorously'
p852
I1
sS'yacht'
p853
I2
sS'together'
p854
I4
sS'gorilla'
p855
I2
sS'vietnam'
p856
I2
sS'time'
p857
I16
sS'push'
p858
I4
sS'serious'
p859
I2
sS'overdue'
p860
I1
sS'neighbors'
p861
I1
sS'detective'
p862
I8
sS'managed'
p863
I7
sS'remarkable'
p864
I1
sS'diplomacy'
p865
I2
sS'global'
p866
I14
sS'alternatives'
p867
I1
sS'focus'
p868
I1
sS'laura'
p869
I1
sS'manager'
p870
I4
sS'mile'
p871
I1
sS'reigniting'
p872
I1
sS'battle'
p873
I1
sS'shot'
p874
I6
sS'bomber'
p875
I3
sS'requested'
p876
I1
sS'suicide'
p877
I7
sS'zone'
p878
I1
sS'outflanked'
p879
I1
sS'honoring'
p880
I1
sS'promote'
p881
I1
sS'april'
p882
I1
sS'father'
p883
I4
sS'editors'
p884
I1
sS'fncstatic'
p885
I7
sS'iraqi'
p886
I1
sS'charge'
p887
I2
sS'grappled'
p888
I1
sS'terror'
p889
I1
sS'veterans'
p890
I1
sS'pleases'
p891
I1
sS'protestors'
p892
I1
sS'tanzanian'
p893
I2
sS'smartphone'
p894
I2
sS'string'
p895
I1
sS'zhang'
p896
I1
sS'billionaire'
p897
I2
sS'conquering'
p898
I1
sS'consolidation'
p899
I1
sS'seemingly'
p900
I1
sS'choice'
p901
I1
sS'vegas'
p902
I5
sS'anonymous'
p903
I1
sS'trouble'
p904
I2
sS'blast'
p905
I2
sS'fredricka'
p906
I1
sS'overfished'
p907
I1
sS'aggressively'
p908
I1
sS'hour'
p909
I3
sS'level'
p910
I2
sS'tear'
p911
I2
sS'apartheid'
p912
I5
sS'proposals'
p913
I1
sS'brother'
p914
I11
sS'puppeteer'
p915
I2
sS'leave'
p916
I1
sS'item'
p917
I1
sS'brothel'
p918
I2
sS'team'
p919
I2
sS'sidewalk'
p920
I1
sS'upper'
p921
I1
sS'unexpected'
p922
I1
sS'says'
p923
I28
sS'dealing'
p924
I1
sS'cyber'
p925
I1
sS'overhaul'
p926
I1
sS'cost'
p927
I5
sS'portfolio'
p928
I1
sS'trent'
p929
I1
sS'targets'
p930
I2
sS'afghanistan'
p931
I3
sS'constitution'
p932
I5
sS'barbie'
p933
I1
sS'celebrated'
p934
I1
sS'shares'
p935
I1
sS'brink'
p936
I2
sS'looking'
p937
I3
sS'health'
p938
I2
sS'suspect'
p939
I3
sS'somalia'
p940
I1
sS'goes'
p941
I4
sS'marketing'
p942
I1
sS'bombing'
p943
I3
sS'international'
p944
I8
sS'appeal'
p945
I1
sS'scripted'
p946
I1
sS'angelina'
p947
I1
sS'jury'
p948
I6
sS'guardian'
p949
I3
sS'slaying'
p950
I2
sS'muslim'
p951
I5
sS'french'
p952
I8
sS'obeidallah'
p953
I1
sS'water'
p954
I3
sS'criticizing'
p955
I1
sS'soldiers'
p956
I1
sS'groups'
p957
I7
sS'address'
p958
I2
sS'alone'
p959
I2
sS'grabbed'
p960
I2
sS'along'
p961
I2
sS'appears'
p962
I1
sS'change'
p963
I8
sS'passengers'
p964
I2
sS'comptroller'
p965
I2
sS'tire'
p966
I2
sS'flames'
p967
I1
sS'battling'
p968
I1
sS'institute'
p969
I1
sS'cronut'
p970
I4
sS'guilty'
p971
I4
sS'trial'
p972
I17
sS'ineffective'
p973
I1
sS'descended'
p974
I1
sS'usually'
p975
I1
sS'studies'
p976
I1
sS'rafael'
p977
I3
sS'reclaim'
p978
I1
sS'retired'
p979
I1
sS'lending'
p980
I1
sS'balkan'
p981
I1
sS'bloody'
p982
I1
sS'patriots'
p983
I2
sS'individuals'
p984
I1
sS'fake'
p985
I3
sS'ailing'
p986
I2
sS'rarely'
p987
I1
sS'yarnell'
p988
I1
sS'crisis'
p989
I5
sS'market'
p990
I1
sS'transplant'
p991
I1
sS'working'
p992
I1
sS'senile'
p993
I1
sS'positive'
p994
I1
sS'resigns'
p995
I1
sS'druids'
p996
I1
sS'angela'
p997
I1
sS'france'
p998
I10
sS'abbas'
p999
I2
sS'insider'
p1000
I2
sS'live'
p1001
I2
sS'bombings'
p1002
I2
sS'iphone'
p1003
I1
sS'films'
p1004
I2
sS'enriched'
p1005
I1
sS'australian'
p1006
I2
sS'thru'
p1007
I1
sS'today'
p1008
I9
sS'commissioner'
p1009
I1
sS'sharing'
p1010
I2
sS'kerry'
p1011
I8
sS'dramatizing'
p1012
I1
sS'apparent'
p1013
I1
sS'employee'
p1014
I1
sS'visual'
p1015
I1
sS'dismal'
p1016
I1
sS'velez'
p1017
I1
sS'savior'
p1018
I1
sS'archaeologists'
p1019
I1
sS'cases'
p1020
I1
sS'given'
p1021
I1
sS'effort'
p1022
I2
sS'earth'
p1023
I3
sS'walled'
p1024
I1
sS'sheds'
p1025
I1
sS'tokyo'
p1026
I1
sS'thousands'
p1027
I4
sS'abortion'
p1028
I3
sS'believes'
p1029
I1
sS'conceal'
p1030
I1
sS'judy'
p1031
I1
sS'growing'
p1032
I5
sS'making'
p1033
I3
sS'carolina'
p1034
I1
sS'pretoria'
p1035
I1
sS'stimulating'
p1036
I1
sS'meant'
p1037
I1
sS'crazy'
p1038
I1
sS'performer'
p1039
I4
sS'trump'
p1040
I2
sS'tock'
p1041
I2
sS'predict'
p1042
I1
sS'december'
p1043
I1
sS'restaurants'
p1044
I1
sS'agent'
p1045
I4
sS'expectant'
p1046
I1
sS'1980s'
p1047
I2
sS'heard'
p1048
I5
sS'gabby'
p1049
I1
sS'battered'
p1050
I1
sS'counting'
p1051
I1
sS'painkillers'
p1052
I1
sS'savoy'
p1053
I1
sS'requirements'
p1054
I1
sS'soleil'
p1055
I4
sS'fortunately'
p1056
I1
sS'provides'
p1057
I1
sS'discussion'
p1058
I1
sS'means'
p1059
I1
sS'thanking'
p1060
I1
sS'immune'
p1061
I1
sS'sunday'
p1062
I9
sS'slams'
p1063
I1
sS'shasta'
p1064
I1
sS'significant'
p1065
I2
sS'speaks'
p1066
I1
sS'dominance'
p1067
I1
sS'economy'
p1068
I3
sS'staying'
p1069
I1
sS'explores'
p1070
I1
sS'crashes'
p1071
I1
sS'information'
p1072
I3
sS'critics'
p1073
I1
sS'zimmerman'
p1074
I16
sS'blasting'
p1075
I1
sS'southern'
p1076
I4
sS'fueled'
p1077
I1
sS'district'
p1078
I1
sS'tipped'
p1079
I1
sS'tamarod'
p1080
I1
sS'commit'
p1081
I1
sS'mocks'
p1082
I1
sS'such'
p1083
I3
sS'heroes'
p1084
I1
sS'data'
p1085
I2
sS'orban'
p1086
I2
sS'stress'
p1087
I1
sS'collective'
p1088
I1
sS'grandson'
p1089
I2
sS'quot'
p1090
I4
sS'misogynists'
p1091
I1
sS'jail'
p1092
I6
sS'block'
p1093
I1
sS'african'
p1094
I6
sS'mallika'
p1095
I2
sS'definitions'
p1096
I1
sS'truce'
p1097
I1
sS'fireball'
p1098
I1
sS'talk'
p1099
I4
sS'takers'
p1100
I1
sS'exclusive'
p1101
I5
sS'serving'
p1102
I1
sS'unfavorably'
p1103
I1
sS'words'
p1104
I2
sS'pointed'
p1105
I2
sS'mainly'
p1106
I1
sS'mongering'
p1107
I1
sS'years'
p1108
I19
sS'embezzlement'
p1109
I1
sS'ended'
p1110
I3
sS'nbsp'
p1111
I289
sS'cuts'
p1112
I2
sS'argued'
p1113
I1
sS'kanye'
p1114
I1
sS'still'
p1115
I4
sS'birds'
p1116
I2
sS'police'
p1117
I24
sS'monitor'
p1118
I4
sS'warps'
p1119
I1
sS'procedures'
p1120
I1
sS'civic'
p1121
I1
sS'civil'
p1122
I3
sS'offers'
p1123
I1
sS'suspicion'
p1124
I2
sS'policy'
p1125
I1
sS'mail'
p1126
I1
sS'troubled'
p1127
I4
sS'loophole'
p1128
I1
sS'texas'
p1129
I10
sS'finance'
p1130
I1
sS'disparate'
p1131
I1
sS'views'
p1132
I1
sS'moms'
p1133
I1
sS'rattled'
p1134
I1
sS'sight'
p1135
I2
sS'nation'
p1136
I5
sS'answer'
p1137
I3
sS'amy_bakery660'
p1138
I1
sS'taliban'
p1139
I8
sS'wealthy'
p1140
I2
sS'sorted'
p1141
I1
sS'killed'
p1142
I21
sS'rattles'
p1143
I1
sS'commuters'
p1144
I1
sS'term'
p1145
I2
sS'equality'
p1146
I1
sS'name'
p1147
I6
sS'james'
p1148
I4
sS'establishing'
p1149
I1
sS'endangerment'
p1150
I1
sS'lede'
p1151
I3
sS'rock'
p1152
I1
sS'quarter'
p1153
I2
sS'square'
p1154
I1
sS'prompted'
p1155
I2
sS'cairo'
p1156
I5
sS'steven'
p1157
I1
sS'sabine'
p1158
I2
sS'challenges'
p1159
I1
sS'persian'
p1160
I1
sS'begun'
p1161
I2
sS'year'
p1162
I21
sS'tumultuous'
p1163
I1
sS'girl'
p1164
I8
sS'avoided'
p1165
I2
sS'shoots'
p1166
I1
sS'tried'
p1167
I1
sS'hacker'
p1168
I2
sS'living'
p1169
I3
sS'costliest'
p1170
I1
sS'opened'
p1171
I1
sS'space'
p1172
I7
sS'profit'
p1173
I1
sS'tensions'
p1174
I2
sS'pedophile'
p1175
I2
sS'interference'
p1176
I1
sS'factory'
p1177
I1
sS'activities'
p1178
I1
sS'increase'
p1179
I1
sS'collisions'
p1180
I2
sS'contained'
p1181
I1
sS'investigation'
p1182
I4
sS'emerged'
p1183
I1
sS'internet'
p1184
I2
sS'suggesting'
p1185
I1
sS'formula'
p1186
I1
sS'stench'
p1187
I1
sS'bugging'
p1188
I1
sS'shows'
p1189
I6
sS'eagle'
p1190
I1
sS'quito'
p1191
I1
sS'lawmaker'
p1192
I1
sS'jeanne'
p1193
I1
sS'million'
p1194
I5
sS'pumping'
p1195
I1
sS'governing'
p1196
I1
sS'spies'
p1197
I1
sS'rashtriya'
p1198
I2
sS'rows'
p1199
I1
sS'california'
p1200
I6
sS'rebel'
p1201
I1
sS'plea'
p1202
I3
sS'spied'
p1203
I2
sS'quits'
p1204
I2
sS'inevitable'
p1205
I1
sS'care'
p1206
I2
sS'training'
p1207
I2
sS'couldn'
p1208
I1
sS'ministry'
p1209
I1
sS'impose'
p1210
I1
sS'british'
p1211
I2
sS'unpaid'
p1212
I1
sS'lisicki'
p1213
I3
sS'place'
p1214
I3
sS'massive'
p1215
I4
sS'neglect'
p1216
I1
sS'first'
p1217
I15
sS'exotic'
p1218
I1
sS'suspend'
p1219
I2
sS'saving'
p1220
I1
sS'fleeing'
p1221
I3
sS'jaria'
p1222
I1
sS'rachel'
p1223
I1
sS'whitfield'
p1224
I1
sS'americans'
p1225
I3
sS'fast'
p1226
I1
sS'suspended'
p1227
I1
sS'suing'
p1228
I1
sS'carry'
p1229
I2
sS'corporations'
p1230
I2
sS'drove'
p1231
I1
sS'open'
p1232
I1
sS'george'
p1233
I15
sS'millions'
p1234
I4
sS'city'
p1235
I11
sS'little'
p1236
I3
sS'silent'
p1237
I1
sS'spurned'
p1238
I2
sS'caught'
p1239
I1
sS'breed'
p1240
I1
sS'callous'
p1241
I1
sS'solstice'
p1242
I4
sS'returns'
p1243
I2
sS'visas'
p1244
I1
sS'draft'
p1245
I1
sS'bounty'
p1246
I1
sS'friend'
p1247
I6
sS'gives'
p1248
I4
sS'eyes'
p1249
I4
sS'allegedly'
p1250
I3
sS'that'
p1251
I80
sS'pittsburgh'
p1252
I1
sS'season'
p1253
I4
sS'moscow'
p1254
I11
sS'suit'
p1255
I1
sS'expanse'
p1256
I1
sS'veers'
p1257
I1
sS'released'
p1258
I3
sS'shock'
p1259
I1
sS'inmates'
p1260
I1
sS'tehran'
p1261
I1
sS'surged'
p1262
I1
sS'than'
p1263
I20
sS'population'
p1264
I2
sS'wide'
p1265
I2
sS'television'
p1266
I3
sS'messiest'
p1267
I1
sS'rugged'
p1268
I1
sS'unfortunately'
p1269
I1
sS'rival'
p1270
I2
sS'intensity'
p1271
I1
sS'spokeswoman'
p1272
I1
sS'protected'
p1273
I2
sS'tererai'
p1274
I1
sS'venture'
p1275
I1
sS'were'
p1276
I17
sS'marines'
p1277
I1
sS'vienna'
p1278
I1
sS'russia'
p1279
I14
sS'prospect'
p1280
I1
sS'addressing'
p1281
I1
sS'investors'
p1282
I3
sS'remained'
p1283
I4
sS'marijuana'
p1284
I1
sS'dash'
p1285
I1
sS'medical'
p1286
I6
sS'tastes'
p1287
I1
sS'pastry'
p1288
I3
sS'anger'
p1289
I2
sS'controversial'
p1290
I2
sS'uranium'
p1291
I1
sS'kevin'
p1292
I3
sS'giffords'
p1293
I6
sS'clung'
p1294
I1
sS'bailed'
p1295
I2
sS'greek'
p1296
I1
sS'drubbing'
p1297
I1
sS'mourners'
p1298
I1
sS'shocked'
p1299
I1
sS'cooking'
p1300
I1
sS'equipment'
p1301
I1
sS'emphasis'
p1302
I1
sS'potential'
p1303
I1
sS'take'
p1304
I4
sS'online'
p1305
I1
sS'interior'
p1306
I1
sS'beirut'
p1307
I1
sS'channel'
p1308
I1
sS'begin'
p1309
I1
sS'pain'
p1310
I1
sS'ukrainian'
p1311
I1
sS'track'
p1312
I2
sS'knew'
p1313
I1
sS'paid'
p1314
I1
sS'rips'
p1315
I1
sS'consignment'
p1316
I1
sS'sheets'
p1317
I1
sS'america'
p1318
I7
sS'pages'
p1319
I2
sS'icon'
p1320
I1
sS'michelle'
p1321
I2
sS'especially'
p1322
I2
sS'feminine'
p1323
I1
sS'considered'
p1324
I2
sS'jakarta'
p1325
I1
sS'shooter'
p1326
I1
sS'implications'
p1327
I1
sS'sale'
p1328
I1
sS'mesmerized'
p1329
I1
sS'raquo'
p1330
I10
sS'wind'
p1331
I3
sS'yebin'
p1332
I1
sS'reed'
p1333
I1
sS'senior'
p1334
I2
sS'amir'
p1335
I1
sS'retreated'
p1336
I1
sS'laws'
p1337
I2
sS'shop'
p1338
I1
sS'directed'
p1339
I1
sS'lebedev'
p1340
I4
sS'show'
p1341
I17
sS'hotels'
p1342
I2
sS'filed'
p1343
I4
sS'allegations'
p1344
I3
sS'discovered'
p1345
I2
sS'legalization'
p1346
I1
sS'bright'
p1347
I1
sS'corner'
p1348
I1
sS'maine'
p1349
I1
sS'fifth'
p1350
I2
sS'ground'
p1351
I3
sS'enthusiast'
p1352
I1
sS'slow'
p1353
I1
sS'gulf'
p1354
I1
sS'title'
p1355
I1
sS'storms'
p1356
I3
sS'behind'
p1357
I3
sS'only'
p1358
I5
sS'going'
p1359
I3
sS'black'
p1360
I2
sS'equipped'
p1361
I1
sS'outrage'
p1362
I2
sS'amplifying'
p1363
I1
sS'dispute'
p1364
I2
sS'ranking'
p1365
I1
sS'planets'
p1366
I1
sS'psychiatrist'
p1367
I1
sS'merkel'
p1368
I2
sS'gazette'
p1369
I1
sS'grossing'
p1370
I1
sS'expects'
p1371
I1
sS'baghdad'
p1372
I3
sS'hailed'
p1373
I1
sS'nearly'
p1374
I6
sS'hotshot'
p1375
I2
sS'hedge'
p1376
I1
sS'nauru'
p1377
I1
sS'prime'
p1378
I7
sS'regarding'
p1379
I1
sS'homegrown'
p1380
I1
sS'seared'
p1381
I1
sS'malaysian'
p1382
I1
sS'worried'
p1383
I1
sS'jokes'
p1384
I1
sS'embassy'
p1385
I5
sS'whipped'
p1386
I1
sS'bombs'
p1387
I3
sS'scott'
p1388
I1
sS'disparage'
p1389
I1
sS'where'
p1390
I11
sS'husband'
p1391
I1
sS'staff'
p1392
I1
sS'reveals'
p1393
I1
sS'darlington'
p1394
I1
sS'committed'
p1395
I1
sS'seat'
p1396
I1
sS'anchored'
p1397
I1
sS'elected'
p1398
I1
sS'college'
p1399
I2
sS'eliminating'
p1400
I1
sS'scalia'
p1401
I1
sS'surgery'
p1402
I1
sS'sport'
p1403
I1
sS'reputed'
p1404
I1
sS'europeans'
p1405
I2
sS'appear'
p1406
I1
sS'israeli'
p1407
I3
sS'tackling'
p1408
I1
sS'federal'
p1409
I7
sS'review'
p1410
I2
sS'boundaries'
p1411
I1
sS'outside'
p1412
I4
sS'between'
p1413
I5
sS'teens'
p1414
I2
sS'reading'
p1415
I1
sS'across'
p1416
I8
sS'caucus'
p1417
I1
sS'fight'
p1418
I4
sS'august'
p1419
I2
sS'leanne'
p1420
I1
sS'doma'
p1421
I2
sS'grieves'
p1422
I3
sS'killing'
p1423
I7
sS'offices'
p1424
I1
sS'awards'
p1425
I1
sS'hurts'
p1426
I1
sS'jets'
p1427
I1
sS'childbirth'
p1428
I1
sS'come'
p1429
I2
sS'undermine'
p1430
I1
sS'reaction'
p1431
I2
sS'recovered'
p1432
I1
sS'myfox8'
p1433
I2
sS'libya'
p1434
I1
sS'mona'
p1435
I1
sS'many'
p1436
I5
sS'region'
p1437
I7
sS'priests'
p1438
I2
sS'according'
p1439
I5
sS'contract'
p1440
I1
sS'blasts'
p1441
I4
sS'tour'
p1442
I6
sS'snarls'
p1443
I1
sS'senator'
p1444
I5
sS'traded'
p1445
I1
sS'nearby'
p1446
I1
sS'among'
p1447
I7
sS'cancer'
p1448
I1
sS'nadeau'
p1449
I1
sS'grants'
p1450
I1
sS'anti'
p1451
I9
sS'ordered'
p1452
I4
sS'poll'
p1453
I2
sS'turkey'
p1454
I1
sS'clashes'
p1455
I5
sS'arts'
p1456
I1
sS'resort'
p1457
I1
sS'stretch'
p1458
I1
sS'west'
p1459
I4
sS'filmmakers'
p1460
I1
sS'mark'
p1461
I11
sS'malala'
p1462
I6
sS'eyewitnesses'
p1463
I1
sS'acre'
p1464
I1
sS'antiabortion'
p1465
I1
sS'helicopter'
p1466
I1
sS'borders'
p1467
I1
sS'wants'
p1468
I2
sS'mekong'
p1469
I1
sS'curbing'
p1470
I1
sS'photos'
p1471
I1
sS'dramatic'
p1472
I3
sS'minister'
p1473
I17
sS'eaters'
p1474
I1
sS'overdose'
p1475
I2
sS'andrea'
p1476
I1
sS'former'
p1477
I24
sS'those'
p1478
I10
sS'case'
p1479
I15
sS'prehistoric'
p1480
I1
sS'developing'
p1481
I1
sS'cash'
p1482
I4
sS'cast'
p1483
I1
sS'policies'
p1484
I2
sS'residence'
p1485
I1
sS'newspaper'
p1486
I1
sS'investigating'
p1487
I2
sS'spotlight'
p1488
I1
sS'then'
p1489
I4
sS'sincere'
p1490
I1
sS'coffee'
p1491
I1
sS'monk'
p1492
I6
sS'couples'
p1493
I3
sS'middle'
p1494
I12
sS'pleads'
p1495
I2
sS'roil'
p1496
I1
sS'dangerously'
p1497
I1
sS'heels'
p1498
I1
sS'refugees'
p1499
I2
sS'everyday'
p1500
I1
sS'dwindle'
p1501
I1
sS'bags'
p1502
I1
sS'different'
p1503
I2
sS'author'
p1504
I1
sS'threatens'
p1505
I3
sS'edwin'
p1506
I1
sS'same'
p1507
I7
sS'surveillance'
p1508
I6
sS'mobster'
p1509
I1
sS'acquaintances'
p1510
I1
sS'inquiry'
p1511
I1
sS'angered'
p1512
I2
sS'vandalism'
p1513
I2
sS'document'
p1514
I1
sS'gays'
p1515
I1
sS'events'
p1516
I3
sS'wimbledon'
p1517
I4
sS'week'
p1518
I6
sS'putin'
p1519
I5
sS'centuries'
p1520
I2
sS'closest'
p1521
I1
sS'defy'
p1522
I1
sS'driver'
p1523
I1
sS'incarceration'
p1524
I1
sS'driven'
p1525
I1
sS'running'
p1526
I4
sS'boothe'
p1527
I1
sS'unqualified'
p1528
I1
sS'intended'
p1529
I1
sS'footprint'
p1530
I1
sS'changing'
p1531
I3
sS'cross'
p1532
I1
sS'vowed'
p1533
I1
sS'booster'
p1534
I1
sS'commemorate'
p1535
I1
sS'tracking'
p1536
I1
sS'revelations'
p1537
I2
sS'charges'
p1538
I7
sS'without'
p1539
I3
sS'solve'
p1540
I1
sS'components'
p1541
I1
sS'easing'
p1542
I1
sS'model'
p1543
I1
sS'canceled'
p1544
I1
sS'bodies'
p1545
I2
sS'charged'
p1546
I9
sS'summer'
p1547
I7
sS'malicious'
p1548
I1
sS'monet'
p1549
I1
sS'they'
p1550
I13
sS'pakistan'
p1551
I2
sS'being'
p1552
I8
sS'money'
p1553
I2
sS'unconstitutional'
p1554
I2
sS'sights'
p1555
I1
sS'actress'
p1556
I1
sS'violent'
p1557
I1
sS'kill'
p1558
I8
sS'cambodia'
p1559
I1
sS'gated'
p1560
I1
sS'touch'
p1561
I1
sS'polish'
p1562
I1
sS'extradition'
p1563
I1
sS'rousseff'
p1564
I1
sS'captured'
p1565
I2
sS'blow'
p1566
I2
sS'death'
p1567
I6
sS'hint'
p1568
I1
sS'thinking'
p1569
I1
sS'rose'
p1570
I1
sS'seems'
p1571
I2
sS'blog'
p1572
I2
sS'bloc'
p1573
I1
sS'astonishment'
p1574
I1
sS'overthrow'
p1575
I4
sS'engulfed'
p1576
I1
sS'republic'
p1577
I1
sS'poised'
p1578
I1
sS'ross'
p1579
I1
sS'scheduled'
p1580
I1
sS'propped'
p1581
I1
sS'aspects'
p1582
I1
sS'around'
p1583
I11
sS'kills'
p1584
I4
sS'onscreen'
p1585
I1
sS'rules'
p1586
I3
sS'early'
p1587
I4
sS'warehouse'
p1588
I1
sS'traffic'
p1589
I2
sS'listening'
p1590
I2
sS'secrecy'
p1591
I1
sS'using'
p1592
I1
sS'accepted'
p1593
I1
sS'lady'
p1594
I2
sS'glaciers'
p1595
I1
sS'fortune'
p1596
I1
sS'stranger'
p1597
I1
sS'pounds'
p1598
I4
sS'suppliers'
p1599
I2
sS'iphone5'
p1600
I1
sS'finley'
p1601
I1
sS'facing'
p1602
I2
sS'audience'
p1603
I1
sS'downed'
p1604
I1
sS'robbery'
p1605
I2
sS'completely'
p1606
I1
sS'served'
p1607
I1
sS'reduced'
p1608
I1
sS'afrikan'
p1609
I1
sS'jews'
p1610
I2
sS'exposed'
p1611
I1
sS'pacific'
p1612
I1
sS'hungry'
p1613
I1
sS'michigan'
p1614
I1
sS'snatched'
p1615
I1
sS'thinks'
p1616
I2
sS'scandals'
p1617
I1
sS'kaiser'
p1618
I1
sS'caribbean'
p1619
I1
sS'putter'
p1620
I1
sS'legal'
p1621
I2
sS'moon'
p1622
I1
sS'nutty'
p1623
I1
sS'moos'
p1624
I1
sS'critical'
p1625
I2
sS'lunar'
p1626
I1
sS'statements'
p1627
I2
sS'aussie'
p1628
I1
sS'ethos'
p1629
I1
sS'considering'
p1630
I2
sS'welcome'
p1631
I1
sS'assembly'
p1632
I1
sS'business'
p1633
I5
sS'sensible'
p1634
I1
sS'seconds'
p1635
I7
sS'prosecution'
p1636
I3
sS'unease'
p1637
I1
sS'slaughter'
p1638
I1
sS'broken'
p1639
I2
sS'leadership'
p1640
I1
sS'visits'
p1641
I1
sS'volcano'
p1642
I1
sS'assemble'
p1643
I1
sS'thailand'
p1644
I1
sS'helping'
p1645
I3
sS'central'
p1646
I3
sS'stations'
p1647
I2
sS'island'
p1648
I4
sS'industry'
p1649
I2
sS'violence'
p1650
I2
sS'favorite'
p1651
I1
sS'drag'
p1652
I1
sS'stand'
p1653
I4
sS'pockets'
p1654
I1
sS'testimony'
p1655
I1
sS'road'
p1656
I4
sS'allowing'
p1657
I1
sS'whitey'
p1658
I4
sS'cambridge'
p1659
I3
sS'protests'
p1660
I10
sS'fundraising'
p1661
I1
sS'jaspen'
p1662
I1
sS'image'
p1663
I2
sS'legged'
p1664
I1
sS'klerk'
p1665
I2
sS'rising'
p1666
I3
sS'homeless'
p1667
I4
sS'parties'
p1668
I1
sS'burton'
p1669
I1
sS'wade'
p1670
I1
sS'shrinking'
p1671
I1
sS'your'
p1672
I7
sS'intervention'
p1673
I2
sS'wildfire'
p1674
I5
sS'legacy'
p1675
I2
sS'area'
p1676
I7
sS'removing'
p1677
I1
sS'there'
p1678
I6
sS'racism'
p1679
I4
sS'start'
p1680
I2
sS'stars'
p1681
I2
sS'alleges'
p1682
I3
sS'valley'
p1683
I1
sS'chats'
p1684
I1
sS'tycoon'
p1685
I2
sS'deepened'
p1686
I1
sS'complete'
p1687
I1
sS'vested'
p1688
I1
sS'smuggling'
p1689
I2
sS'delayed'
p1690
I2
sS'strikes'
p1691
I1
sS'cabinet'
p1692
I2
sS'oversteps'
p1693
I1
sS'land'
p1694
I2
sS'brain'
p1695
I1
sS'rothkopf'
p1696
I1
sS'elimination'
p1697
I1
sS'pitched'
p1698
I1
sS'rouse'
p1699
I1
sS'with'
p1700
I83
sS'haitian'
p1701
I1
sS'buying'
p1702
I1
sS'longer'
p1703
I2
sS'engaging'
p1704
I1
sS'fraud'
p1705
I1
sS'sleaze'
p1706
I1
sS'rage'
p1707
I1
sS'receptive'
p1708
I1
sS'putters'
p1709
I1
sS'taught'
p1710
I1
sS'grasp'
p1711
I1
sS'tripp'
p1712
I1
sS'misery'
p1713
I1
sS'gone'
p1714
I1
sS'required'
p1715
I1
sS'politico'
p1716
I2
sS'taste'
p1717
I1
sS'describe'
p1718
I2
sS'moved'
p1719
I3
sS'sales'
p1720
I3
sS'deep'
p1721
I1
sS'general'
p1722
I4
sS'deen'
p1723
I5
sS'leaker'
p1724
I7
sS'daily'
p1725
I7
sS'file'
p1726
I1
sS'importing'
p1727
I2
sS'politics'
p1728
I5
sS'syrian'
p1729
I6
sS'happy'
p1730
I2
sS'film'
p1731
I1
sS'again'
p1732
I4
sS'birdwatchers'
p1733
I1
sS'istanbul'
p1734
I2
sS'hybrid'
p1735
I1
sS'saturday'
p1736
I3
sS'tight'
p1737
I3
sS'nasa'
p1738
I1
sS'astronaut'
p1739
I2
sS'really'
p1740
I1
sS'udall'
p1741
I11
sS'immunity'
p1742
I4
sS'preoccupation'
p1743
I1
sS'poor'
p1744
I3
sS'seymour'
p1745
I1
sS'championship'
p1746
I1
sS'congress'
p1747
I1
sS'offensive'
p1748
I2
sS'students'
p1749
I1
sS'infighting'
p1750
I2
sS'symbol'
p1751
I1
sS'affairs'
p1752
I1
sS'overreach'
p1753
I1
sS'important'
p1754
I1
sS'massachusetts'
p1755
I2
sS'suited'
p1756
I1
sS'brotherhood'
p1757
I4
sS'included'
p1758
I1
sS'velvet'
p1759
I1
sS'readings'
p1760
I1
sS'finals'
p1761
I2
sS'pool'
p1762
I1
sS'network'
p1763
I3
sS'fiscal'
p1764
I2
sS'mourned'
p1765
I1
sS'holed'
p1766
I1
sS'assets'
p1767
I1
sS'calls'
p1768
I1
sS'wife'
p1769
I5
sS'waived'
p1770
I1
sS'requires'
p1771
I1
sS'rutger'
p1772
I1
sS'having'
p1773
I2
sS'landfill'
p1774
I1
sS'directors'
p1775
I2
sS'mass'
p1776
I4
sS'nelson'
p1777
I5
sS'detonating'
p1778
I1
sS'resolution'
p1779
I1
sS'external'
p1780
I1
sS'skeleton'
p1781
I1
sS'chinese'
p1782
I11
sS'caused'
p1783
I1
sS'suburban'
p1784
I1
sS'lack'
p1785
I2
sS'concern'
p1786
I4
sS'month'
p1787
I8
sS'unrest'
p1788
I3
sS'debris'
p1789
I1
sS'deadline'
p1790
I9
sS'suspected'
p1791
I1
sS'talks'
p1792
I14
sS'follow'
p1793
I1
sS'religious'
p1794
I2
sS'children'
p1795
I3
sS'causes'
p1796
I1
sS'reluctant'
p1797
I1
sS'fizzles'
p1798
I1
sS'apartment'
p1799
I1
sS'lining'
p1800
I3
sS'wyoming'
p1801
I6
sS'misses'
p1802
I1
sS'opportunities'
p1803
I1
sS'riots'
p1804
I1
sS'aaron'
p1805
I5
sS'program'
p1806
I3
sS'present'
p1807
I2
sS'dominated'
p1808
I1
sS'lawmakers'
p1809
I1
sS'mandela'
p1810
I8
sS'paying'
p1811
I1
sS'khmer'
p1812
I1
sS'woman'
p1813
I10
sS'premium'
p1814
I1
sS'dutchess'
p1815
I1
sS'deeper'
p1816
I1
sS'egyptian'
p1817
I5
sS'very'
p1818
I3
sS'detention'
p1819
I2
sS'bombed'
p1820
I1
sS'sons'
p1821
I1
sS'worst'
p1822
I4
sS'fall'
p1823
I3
sS'elena'
p1824
I1
sS'austerity'
p1825
I2
sS'newly'
p1826
I2
sS'condition'
p1827
I2
sS'catherine'
p1828
I1
sS'louis'
p1829
I1
sS'celebrity'
p1830
I1
sS'list'
p1831
I2
sS'joined'
p1832
I3
sS'grandfather'
p1833
I1
sS'large'
p1834
I2
sS'saudi'
p1835
I2
sS'small'
p1836
I9
sS'dodger'
p1837
I1
sS'rebuffs'
p1838
I1
sS'neighborhood'
p1839
I2
sS'streets'
p1840
I6
sS'exploding'
p1841
I1
sS'robyn'
p1842
I1
sS'past'
p1843
I4
sS'rate'
p1844
I2
sS'invention'
p1845
I1
sS'tallest'
p1846
I2
sS'pass'
p1847
I1
sS'link'
p1848
I1
sS'further'
p1849
I4
sS'investment'
p1850
I2
sS'chalk'
p1851
I1
sS'what'
p1852
I15
sS'apologizes'
p1853
I2
sS'stood'
p1854
I4
sS'richard'
p1855
I5
sS'clock'
p1856
I1
sS'ticks'
p1857
I1
sS'destroyed'
p1858
I1
sS'learned'
p1859
I2
sS'public'
p1860
I6
sS'movement'
p1861
I1
sS'revealing'
p1862
I1
sS'outgoing'
p1863
I1
sS'full'
p1864
I5
sS'iran'
p1865
I3
sS'answers'
p1866
I1
sS'fugitive'
p1867
I2
sS'hours'
p1868
I7
sS'wildland'
p1869
I3
sS'operating'
p1870
I1
sS'andrews'
p1871
I1
sS'civilians'
p1872
I2
sS'november'
p1873
I1
sS'strong'
p1874
I4
sS'tragedy'
p1875
I2
sS'search'
p1876
I3
sS'bible'
p1877
I2
sS'prosecutors'
p1878
I3
sS'inspired'
p1879
I3
sS'fired'
p1880
I2
sS'soldier'
p1881
I1
sS'airport'
p1882
I3
sS'bulger'
p1883
I9
sS'social'
p1884
I1
sS'action'
p1885
I1
sS'narrow'
p1886
I3
sS'options'
p1887
I5
sS'alexandria'
p1888
I2
sS'followed'
p1889
I2
sS'family'
p1890
I4
sS'transit'
p1891
I4
sS'africa'
p1892
I17
sS'marriages'
p1893
I2
sS'glitch'
p1894
I1
sS'thought'
p1895
I2
sS'trained'
p1896
I1
sS'feedings'
p1897
I2
sS'pulls'
p1898
I1
sS'extinction'
p1899
I1
sS'armed'
p1900
I1
sS'somber'
p1901
I1
sS'jurors'
p1902
I5
sS'finally'
p1903
I2
sS'02t09'
p1904
I1
sS'damaged'
p1905
I2
sS'chaotic'
p1906
I1
sS'gorgeous'
p1907
I1
sS'taken'
p1908
I2
sS'branded'
p1909
I2
sS'unthinkable'
p1910
I1
sS'more'
p1911
I19
sS'teen'
p1912
I3
sS'shazia'
p1913
I2
sS'israel'
p1914
I1
sS'company'
p1915
I4
sS'broke'
p1916
I5
sS'known'
p1917
I3
sS'factories'
p1918
I1
sS'nineteen'
p1919
I1
sS'saharan'
p1920
I1
sS'town'
p1921
I7
sS'weighed'
p1922
I1
sS'deadlocks'
p1923
I1
sS'recovering'
p1924
I1
sS'vladimir'
p1925
I5
sS'primate'
p1926
I2
sS'shielded'
p1927
I2
sS'science'
p1928
I6
sS'levar'
p1929
I1
sS'superlatives'
p1930
I1
sS'guards'
p1931
I4
sS'scramble'
p1932
I1
sS'history'
p1933
I8
sS'purchases'
p1934
I1
sS'prompt'
p1935
I1
sS'impacts'
p1936
I2
sS'prompting'
p1937
I1
sS'share'
p1938
I1
sS'accept'
p1939
I1
sS'states'
p1940
I9
sS'iwatch'
p1941
I4
sS'numbers'
p1942
I1
sS'schoolgirl'
p1943
I1
sS'species'
p1944
I3
sS'zanzibar'
p1945
I2
sS'homicide'
p1946
I1
sS'huge'
p1947
I1
sS'needs'
p1948
I1
sS'court'
p1949
I11
sS'pistorius'
p1950
I2
sS'rather'
p1951
I2
sS'breaking'
p1952
I1
sS'ledger'
p1953
I1
sS'johannesburg'
p1954
I2
sS'speeding'
p1955
I1
sS'profiting'
p1956
I1
sS'explains'
p1957
I2
sS'plant'
p1958
I3
sS'abdicate'
p1959
I1
sS'emulate'
p1960
I1
sS'uprising'
p1961
I1
sS'weaknesses'
p1962
I1
sS'crashed'
p1963
I1
sS'plane'
p1964
I2
sS'director'
p1965
I1
sS'malnourished'
p1966
I1
sS'waves'
p1967
I1
sS'salaam'
p1968
I4
sS'ethics'
p1969
I1
sS'response'
p1970
I2
sS'alps'
p1971
I1
sS'short'
p1972
I3
sS'read'
p1973
I2
sS'conglomerates'
p1974
I1
sS'doctor'
p1975
I3
sS'coal'
p1976
I1
sS'fundamental'
p1977
I1
sS'media'
p1978
I11
sS'banks'
p1979
I3
sS'rottweiler'
p1980
I2
sS'followers'
p1981
I1
sS'help'
p1982
I13
sS'discontent'
p1983
I1
sS'gulias'
p1984
I1
sS'september'
p1985
I1
sS'developed'
p1986
I1
sS'soon'
p1987
I3
sS'installed'
p1988
I1
sS'held'
p1989
I1
sS'paper'
p1990
I1
sS'through'
p1991
I4
sS'unite'
p1992
I1
sS'makeup'
p1993
I1
sS'signs'
p1994
I1
sS'milwaukee'
p1995
I3
sS'suffer'
p1996
I1
sS'member'
p1997
I7
sS'clashed'
p1998
I1
sS'baar'
p1999
I1
sS'late'
p2000
I2
sS'plotters'
p2001
I1
sS'absence'
p2002
I2
sS'reuters'
p2003
I56
sS'speech'
p2004
I3
sS'soccer'
p2005
I1
sS'might'
p2006
I4
sS'hurting'
p2007
I1
sS'good'
p2008
I1
sS'return'
p2009
I4
sS'penicillin'
p2010
I1
sS'seeking'
p2011
I2
sS'food'
p2012
I3
sS'largest'
p2013
I5
sS'videotaped'
p2014
I1
sS'underground'
p2015
I1
sS'humans'
p2016
I2
sS'compound'
p2017
I5
sS'liat_airline'
p2018
I1
sS'bigger'
p2019
I2
sS'gets'
p2020
I7
sS'opportunism'
p2021
I1
sS'pregnant'
p2022
I3
sS'always'
p2023
I1
sS'micro'
p2024
I1
sS'someone'
p2025
I1
sS'inequality'
p2026
I1
sS'stopped'
p2027
I1
sS'twitchers'
p2028
I1
sS'monsoon'
p2029
I1
sS'found'
p2030
I11
sS'investigators'
p2031
I1
sS'heavy'
p2032
I1
sS'harm'
p2033
I1
sS'everyone'
p2034
I2
sS'england'
p2035
I2
sS'citizens'
p2036
I2
sS'generation'
p2037
I6
sS'house'
p2038
I4
sS'energy'
p2039
I1
sS'hard'
p2040
I2
sS'reduce'
p2041
I1
sS'raisers'
p2042
I1
sS'democrat'
p2043
I1
sS'duchess'
p2044
I3
sS'conakry'
p2045
I1
sS'ryan'
p2046
I2
sS'operation'
p2047
I2
sS'beyond'
p2048
I3
sS'beyonc'
p2049
I1
sS'event'
p2050
I3
sS'booths'
p2051
I2
sS'embattled'
p2052
I2
sS'lola'
p2053
I1
sS'blacks'
p2054
I2
sS'robert'
p2055
I1
sS'since'
p2056
I13
sS'research'
p2057
I1
sS'acting'
p2058
I1
sS'safety'
p2059
I4
sS'hill'
p2060
I1
sS'paradise'
p2061
I1
sS'reich'
p2062
I1
sS'aligned'
p2063
I1
sS'issue'
p2064
I2
sS'plotting'
p2065
I4
sS'bistro'
p2066
I1
sS'disobedience'
p2067
I2
sS'extradited'
p2068
I1
sS'rumor'
p2069
I1
sS'dirt'
p2070
I1
sS'friday'
p2071
I3
sS'story'
p2072
I4
sS'geared'
p2073
I1
sS'houses'
p2074
I1
sS'reason'
p2075
I1
sS'base'
p2076
I2
sS'alzheimer'
p2077
I5
sS'members'
p2078
I3
sS'imagine'
p2079
I1
sS'backed'
p2080
I1
sS'speculation'
p2081
I1
sS'producers'
p2082
I2
sS'owners'
p2083
I2
sS'strasbourg'
p2084
I2
sS'launch'
p2085
I7
sS'persuading'
p2086
I1
sS'gillard'
p2087
I2
sS'diaspora'
p2088
I2
sS'american'
p2089
I2
sS'osterman'
p2090
I1
sS'buried'
p2091
I1
sS'enough'
p2092
I1
sS'unmanned'
p2093
I7
sS'syria'
p2094
I8
sS'pleas'
p2095
I1
sS'major'
p2096
I4
sS'rooted'
p2097
I1
sS'prevent'
p2098
I1
sS'feel'
p2099
I3
sS'number'
p2100
I1
sS'linking'
p2101
I1
sS'talked'
p2102
I1
sS'hangs'
p2103
I1
sS'colombia'
p2104
I1
sS'fees'
p2105
I2
sS'idea'
p2106
I1
sS'passes'
p2107
I1
sS'horse'
p2108
I2
sS'cirque'
p2109
I7
sS'benedict'
p2110
I1
sS'leading'
p2111
I2
sS'financed'
p2112
I1
sS'threatening'
p2113
I2
sS'revive'
p2114
I2
sS'least'
p2115
I11
sS'militant'
p2116
I2
sS'station'
p2117
I3
sS'storm'
p2118
I1
sS'master'
p2119
I3
sS'founder'
p2120
I1
sS'scheme'
p2121
I1
sS'ecuador'
p2122
I3
sS'passed'
p2123
I2
sS'exploded'
p2124
I7
sS'hotel'
p2125
I1
sS'immediate'
p2126
I1
sS'everglades'
p2127
I1
sS'alumina'
p2128
I1
sS'part'
p2129
I3
sS'newsday'
p2130
I1
sS'focusing'
p2131
I1
sS'gruesome'
p2132
I3
sS'sign'
p2133
I1
sS'convinced'
p2134
I1
sS'explodes'
p2135
I3
sS'obama'
p2136
I32
sS'kind'
p2137
I1
sS'grew'
p2138
I1
sS'critically'
p2139
I2
sS'novel'
p2140
I2
sS'double'
p2141
I1
sS'ouster'
p2142
I1
sS'incorporate'
p2143
I1
sS'youth'
p2144
I4
sS'pennsylvania'
p2145
I1
sS'emirates'
p2146
I4
sS'supposed'
p2147
I1
sS'outdoors'
p2148
I2
sS'prescott'
p2149
I7
sS'toward'
p2150
I4
sS'remembers'
p2151
I1
sS'outstanding'
p2152
I1
sS'takeoff'
p2153
I1
sS'antarctica'
p2154
I1
sS'graffiti'
p2155
I1
sS'antonin'
p2156
I1
sS'aged'
p2157
I2
sS'orders'
p2158
I2
sS'karl'
p2159
I1
sS'mountain'
p2160
I3
sS'speaking'
p2161
I1
sS'built'
p2162
I1
sS'evasion'
p2163
I1
sS'self'
p2164
I5
sS'empowered'
p2165
I1
sS'officers'
p2166
I2
sS'also'
p2167
I2
sS'build'
p2168
I1
sS'showcases'
p2169
I1
sS'finding'
p2170
I3
sS'commemorated'
p2171
I1
sS'province'
p2172
I1
sS'patterson'
p2173
I1
sS'serena'
p2174
I3
sS'approves'
p2175
I2
sS'swiftly'
p2176
I1
sS'reach'
p2177
I3
sS'prosthetic'
p2178
I1
sS'react'
p2179
I2
sS'most'
p2180
I10
sS'brooklyn'
p2181
I1
sS'plan'
p2182
I6
sS'enduring'
p2183
I2
sS'services'
p2184
I1
sS'contest'
p2185
I1
sS'extremely'
p2186
I1
sS'approved'
p2187
I2
sS'yeezus'
p2188
I1
sS'dealers'
p2189
I1
sS'chronicle'
p2190
I1
sS'seize'
p2191
I2
sS'clear'
p2192
I2
sS'sometimes'
p2193
I2
sS'cover'
p2194
I3
sS'hamid'
p2195
I2
sS'recordrock'
p2196
I1
sS'weigh'
p2197
I1
sS'usual'
p2198
I1
sS'checkpointohio12'
p2199
I1
sS'joining'
p2200
I2
sS'sector'
p2201
I1
sS'rebels'
p2202
I5
sS'stunned'
p2203
I1
sS'obligations'
p2204
I1
sS'gitmo'
p2205
I2
sS'stumped'
p2206
I1
sS'wounded'
p2207
I3
sS'melt'
p2208
I1
sS'headlines'
p2209
I1
sS'find'
p2210
I8
sS'impact'
p2211
I3
sS'cell'
p2212
I2
sS'believe'
p2213
I1
sS'daftari'
p2214
I1
sS'northern'
p2215
I4
sS'writes'
p2216
I1
sS'discord'
p2217
I1
sS'freedoms'
p2218
I1
sS'randy'
p2219
I3
sS'cuba'
p2220
I2
sS'indifference'
p2221
I1
sS'discuss'
p2222
I1
sS'revolts'
p2223
I1
sS'sunny'
p2224
I1
sS'woyjeck'
p2225
I1
sS'trees'
p2226
I2
sS'resent'
p2227
I1
sS'whistle'
p2228
I1
sS'fastest'
p2229
I1
sS'basement'
p2230
I2
sS'during'
p2231
I18
sS'sunni'
p2232
I1
sS'alexander'
p2233
I2
sS'militants'
p2234
I2
sS'enemy'
p2235
I1
sS'catches'
p2236
I1
sS'resolve'
p2237
I4
sS'remove'
p2238
I2
sS'bird'
p2239
I1
sS'sacrifices'
p2240
I1
sS'croatia'
p2241
I4
sS'common'
p2242
I1
sS'activity'
p2243
I2
sS'switzerland'
p2244
I1
sS'maternity'
p2245
I1
sS'mantle'
p2246
I1
sS'river'
p2247
I3
sS'approaching'
p2248
I2
sS'pleaded'
p2249
I1
sS'cynical'
p2250
I1
sS'throwing'
p2251
I1
sS'intelligence'
p2252
I6
sS'prague'
p2253
I1
sS'activists'
p2254
I1
sS'scenes'
p2255
I1
sS'defense'
p2256
I5
sS'surrendered'
p2257
I1
sS'lisbon'
p2258
I1
sS'transportation'
p2259
I1
sS'branson'
p2260
I3
sS'defends'
p2261
I1
sS'threats'
p2262
I1
sS'bride'
p2263
I1
sS'guinea'
p2264
I2
sS'klux'
p2265
I1
sS'currently'
p2266
I1
sS'exhuming'
p2267
I1
sS'unions'
p2268
I1
sS'smallest'
p2269
I1
sS'honour'
p2270
I1
sS'distraught'
p2271
I1
sS'burned'
p2272
I1
sS'champagne'
p2273
I1
sS'numerous'
p2274
I1
sS'corruption'
p2275
I1
sS'risks'
p2276
I1
sS'europe'
p2277
I5
sS'solo'
p2278
I1
sS'latin'
p2279
I1
sS'recently'
p2280
I1
sS'creating'
p2281
I1
sS'unconscious'
p2282
I1
sS'missing'
p2283
I14
sS'targeted'
p2284
I2
sS'attention'
p2285
I1
sS'renews'
p2286
I1
sS'aircraft'
p2287
I1
sS'renewed'
p2288
I1
sS'passe'
p2289
I1
sS'opposition'
p2290
I9
sS'guantanamo'
p2291
I2
sS'both'
p2292
I5
sS'prospects'
p2293
I1
sS'filthiest'
p2294
I1
sS'prescription'
p2295
I2
sS'clad'
p2296
I2
sS'license'
p2297
I2
sS'influential'
p2298
I1
sS'foreign'
p2299
I7
sS'roman'
p2300
I1
sS'became'
p2301
I2
sS'cronuts'
p2302
I1
sS'whole'
p2303
I1
sS'finds'
p2304
I3
sS'reconsidered'
p2305
I1
sS'supply'
p2306
I3
sS'simple'
p2307
I1
sS'loan'
p2308
I1
sS'sweep'
p2309
I1
sS'community'
p2310
I6
sS'unfolded'
p2311
I1
sS'simply'
p2312
I1
sS'novosti'
p2313
I1
sS'church'
p2314
I3
sS'sees'
p2315
I1
sS'throughout'
p2316
I1
sS'mission'
p2317
I2
sS'headaches'
p2318
I1
sS'described'
p2319
I2
sS'palace'
p2320
I3
sS'arrest'
p2321
I4
sS'create'
p2322
I1
sS'underage'
p2323
I1
sS'political'
p2324
I11
sS'teacher'
p2325
I1
sS'convicted'
p2326
I8
sS'secret'
p2327
I1
sS'complicated'
p2328
I1
sS'laos'
p2329
I1
sS'threaten'
p2330
I5
sS'cooperators'
p2331
I1
sS'meeting'
p2332
I3
sS'empty'
p2333
I1
sS'lakhani'
p2334
I1
sS'settling'
p2335
I1
sS'lived'
p2336
I2
sS'flight'
p2337
I1
sS'champion'
p2338
I1
sS'sending'
p2339
I2
sS'kilograms'
p2340
I1
sS'firefighters'
p2341
I9
sS'aborts'
p2342
I1
sS'else'
p2343
I1
sS'fund'
p2344
I5
sS'lives'
p2345
I5
sS'representative'
p2346
I1
sS'pacemaker'
p2347
I1
sS'demand'
p2348
I3
sS'towns'
p2349
I1
sS'struck'
p2350
I1
sS'redemption'
p2351
I1
sS'plants'
p2352
I1
sS'pierce'
p2353
I2
sS'georgia'
p2354
I1
sS'politician'
p2355
I1
sS'look'
p2356
I6
sS'foreshadowed'
p2357
I1
sS'straight'
p2358
I1
sS'bill'
p2359
I6
sS'elections'
p2360
I2
sS'governor'
p2361
I3
sS'sesame'
p2362
I1
sS'while'
p2363
I9
sS'huffington'
p2364
I1
sS'guide'
p2365
I1
sS'curnow'
p2366
I1
sS'swim'
p2367
I2
sS'larger'
p2368
I1
sS'portugal'
p2369
I6
sS'century'
p2370
I1
sS'motors'
p2371
I1
sS'itself'
p2372
I1
sS'carbon'
p2373
I1
sS'leaving'
p2374
I2
sS'laundering'
p2375
I1
sS'funny'
p2376
I1
sS'italy'
p2377
I1
sS'myth'
p2378
I1
sS'grant'
p2379
I1
sS'brazilians'
p2380
I1
sS'adopt'
p2381
I1
sS'aleppo'
p2382
I2
sS'widely'
p2383
I2
sS'grand'
p2384
I2
sS'shah'
p2385
I2
sS'higher'
p2386
I1
sS'development'
p2387
I1
sS'dhabi'
p2388
I1
sS'lawyers'
p2389
I2
sS'ratings'
p2390
I1
sS'camera'
p2391
I1
sS'cigar'
p2392
I1
sS'youngsters'
p2393
I1
sS'robust'
p2394
I1
sS'brussels'
p2395
I1
sS'euro'
p2396
I1
sS'dark'
p2397
I1
sS'navigation'
p2398
I1
sS'poland'
p2399
I1
sS'chickens'
p2400
I2
sS'cruz'
p2401
I1
sS'analysis'
p2402
I1
sS'dared'
p2403
I1
sS'sports'
p2404
I2
sS'concrete'
p2405
I2
sS'edge'
p2406
I4
sS'regulating'
p2407
I1
sS'gaddafi'
p2408
I1
sS'kelly'
p2409
I1
sS'organization'
p2410
I4
sS'leone'
p2411
I1
sS'yankees'
p2412
I1
sS'coup'
p2413
I3
sS'chore'
p2414
I1
sS'pillory'
p2415
I1
sS'overflows'
p2416
I1
sS'militiamen'
p2417
I1
sS'arrests'
p2418
I1
sS'shape'
p2419
I1
sS'plagued'
p2420
I1
sS'questions'
p2421
I1
sS'world'
p2422
I29
sS'love'
p2423
I3
sS'prince'
p2424
I3
sS'tables'
p2425
I1
sS'intersection'
p2426
I1
sS'majority'
p2427
I1
sS'workers'
p2428
I1
sS'percent'
p2429
I2
sS'education'
p2430
I6
sS'contractor'
p2431
I6
sS'barack'
p2432
I10
sS'causing'
p2433
I1
sS'parents'
p2434
I4
sS'questioned'
p2435
I1
sS'remaining'
p2436
I2
sS'surprised'
p2437
I1
sS'ramped'
p2438
I1
sS'complaint'
p2439
I3
sS'marco'
p2440
I1
sS'victims'
p2441
I6
sS'demands'
p2442
I3
sS'showing'
p2443
I3
sS'condemnation'
p2444
I1
sS'game'
p2445
I4
sS'quest'
p2446
I4
sS'wings'
p2447
I1
sS'formal'
p2448
I2
sS'rotate'
p2449
I1
sS'success'
p2450
I2
sS'semi'
p2451
I2
sS'shaped'
p2452
I1
sS'associate'
p2453
I1
sS'ignore'
p2454
I2
sS'collect'
p2455
I2
sS'continue'
p2456
I1
sS'keke'
p2457
I1
sS'popular'
p2458
I1
sS'nairobi'
p2459
I1
sS'halstead'
p2460
I1
sS'often'
p2461
I2
sS'queens'
p2462
I1
sS'dodging'
p2463
I1
sS'senate'
p2464
I1
sS'spring'
p2465
I1
sS'fathers'
p2466
I3
sS'nepalese'
p2467
I1
sS'some'
p2468
I8
sS'back'
p2469
I8
sS'strongest'
p2470
I2
sS'economic'
p2471
I3
sS'mideast'
p2472
I4
sS'miniseries'
p2473
I1
sS'underbelly'
p2474
I1
sS'qatar'
p2475
I4
sS'decision'
p2476
I2
sS'though'
p2477
I3
sS'ticking'
p2478
I1
sS'tends'
p2479
I1
sS'epic'
p2480
I2
sS'minimal'
p2481
I1
sS'nose'
p2482
I1
sS'professionals'
p2483
I1
sS'nello'
p2484
I1
sS'lose'
p2485
I1
sS'agreement'
p2486
I3
sS'refused'
p2487
I1
sS'step'
p2488
I10
sS'nowhere'
p2489
I1
sS'taboo'
p2490
I1
sS'scrawling'
p2491
I1
sS'faith'
p2492
I1
sS'wildlife'
p2493
I2
sS'hidden'
p2494
I1
sS'anything'
p2495
I3
sS'cigarette'
p2496
I1
sS'entrepreneurs'
p2497
I2
sS'completing'
p2498
I1
sS'firing'
p2499
I2
sS'graduation'
p2500
I1
sS'hinge'
p2501
I1
sS'deserves'
p2502
I1
sS'range'
p2503
I4
sS'involving'
p2504
I3
sS'heel'
p2505
I2
sS'wonders'
p2506
I1
sS'silence'
p2507
I4
sS'pollution'
p2508
I1
sS'credible'
p2509
I1
sS'seeing'
p2510
I1
sS'real'
p2511
I2
sS'colorado'
p2512
I4
sS'depose'
p2513
I1
sS'visit'
p2514
I2
sS'into'
p2515
I18
sS'within'
p2516
I3
sS'dissatisfaction'
p2517
I1
sS'reunites'
p2518
I1
sS'binational'
p2519
I1
sS'bankruptcy'
p2520
I1
sS'minority'
p2521
I1
sS'computer'
p2522
I1
sS'question'
p2523
I1
sS'long'
p2524
I9
sS'crackdown'
p2525
I2
sS'thriller'
p2526
I1
sS'kagan'
p2527
I1
sS'forward'
p2528
I1
sS'opens'
p2529
I2
sS'opponent'
p2530
I1
sS'files'
p2531
I1
sS'mountains'
p2532
I3
sS'himself'
p2533
I4
sS'underlines'
p2534
I1
sS'jewish'
p2535
I2
sS'karen'
p2536
I2
sS'ways'
p2537
I2
sS'immigration'
p2538
I6
sS'slums'
p2539
I1
sS'deductions'
p2540
I1
sS'atlantic'
p2541
I2
sS'competition'
p2542
I1
sS'atom'
p2543
I1
sS'russian'
p2544
I24
sS'wedding'
p2545
I2
sS'junior'
p2546
I1
sS'raising'
p2547
I4
sS'posted'
p2548
I3
sS'info'
p2549
I2
sS'patriot'
p2550
I1
sS'stonewall'
p2551
I1
sS'fries'
p2552
I1
sS'planet'
p2553
I3
sS'accustomed'
p2554
I1
sS'prosecutor'
p2555
I2
sS'planes'
p2556
I2
sS'ghitis'
p2557
I1
sS'called'
p2558
I3
sS'shandong'
p2559
I1
sS'aerial'
p2560
I1
sS'fans'
p2561
I1
sS'allayed'
p2562
I1
sS'deadliest'
p2563
I1
sS'doesn'
p2564
I2
sS'single'
p2565
I1
sS'associates'
p2566
I1
sS'rally'
p2567
I1
sS'cafe'
p2568
I1
sS'rowe'
p2569
I1
sS'berlusconi'
p2570
I2
sS'enquirer'
p2571
I1
sS'peace'
p2572
I4
sS'fears'
p2573
I2
sS'matching'
p2574
I1
sS'rewriting'
p2575
I2
sS'democratically'
p2576
I1
sS'politicians'
p2577
I1
sS'genome'
p2578
I1
sS'department'
p2579
I2
sS'tarp'
p2580
I2
sS'manhattan'
p2581
I1
sS'sutra'
p2582
I1
sS'spectators'
p2583
I1
sS'clean'
p2584
I1
sS'reportedly'
p2585
I2
sS'testified'
p2586
I2
sS'problems'
p2587
I3
sS'resign'
p2588
I1
sS'regulations'
p2589
I1
sS'meaning'
p2590
I1
sS'restoration'
p2591
I1
sS'scarcella'
p2592
I1
sS'score'
p2593
I1
sS'rallied'
p2594
I1
sS'miles'
p2595
I1
sS'sore'
p2596
I1
sS'truthers'
p2597
I1
sS'rescued'
p2598
I3
sS'vehicles'
p2599
I1
sS'walked'
p2600
I1
sS'scream'
p2601
I1
sS'summit'
p2602
I2
sS'heats'
p2603
I2
sS'lying'
p2604
I1
sS'2009'
p2605
I1
sS'buffalo'
p2606
I2
sS'rescues'
p2607
I1
sS'once'
p2608
I5
sS'code'
p2609
I1
sS'flextronics'
p2610
I1
sS'ashamed'
p2611
I1
sS'illustrates'
p2612
I1
sS'issued'
p2613
I2
sS'astronauts'
p2614
I2
sS'highways'
p2615
I1
sS'posturing'
p2616
I1
sS'gang'
p2617
I1
sS'airliners'
p2618
I1
sS'issues'
p2619
I1
sS'seemed'
p2620
I3
sS'archdiocese'
p2621
I1
sS'turkish'
p2622
I2
sS'harvest'
p2623
I1
sS'shanghai'
p2624
I1
sS'mosque'
p2625
I3
sS'young'
p2626
I5
sS'arid'
p2627
I1
sS'ariz'
p2628
I10
sS'attackers'
p2629
I2
sS'breaches'
p2630
I1
sS'blaze'
p2631
I3
sS'kieren'
p2632
I1
sS'stable'
p2633
I2
sS'kapur'
p2634
I2
sS'sent'
p2635
I1
sS'stonehenge'
p2636
I1
sS'seized'
p2637
I1
sS'expressing'
p2638
I1
sS'organizations'
p2639
I1
sS'indication'
p2640
I1
sS'facebook'
p2641
I3
sS'nichols'
p2642
I1
sS'coalition'
p2643
I1
sS'telling'
p2644
I1
sS'assad'
p2645
I4
sS'entire'
p2646
I1
sS'facilitate'
p2647
I1
sS'shabaab'
p2648
I1
sS'knight'
p2649
I1
sS'embarked'
p2650
I1
sS'michael'
p2651
I2
sS'fewer'
p2652
I4
sS'racy'
p2653
I1
sS'threat'
p2654
I1
sS'race'
p2655
I2
sS'verdict'
p2656
I1
sS'innately'
p2657
I1
sS'solutions'
p2658
I1
sS'logistics'
p2659
I1
sS'pledge'
p2660
I1
sS'boots'
p2661
I1
sS'muammar'
p2662
I1
sS'jump'
p2663
I1
sS'video'
p2664
I7
sS'uncomfortable'
p2665
I1
sS'concludes'
p2666
I2
sS'depression'
p2667
I1
sS'power'
p2668
I11
sS'chicago'
p2669
I1
sS'giving'
p2670
I2
sS'bail'
p2671
I2
sS'morsi'
p2672
I3
sS'access'
p2673
I3
sS'consistently'
p2674
I1
sS'troupe'
p2675
I1
sS'twins'
p2676
I1
sS'capital'
p2677
I4
sS'morsy'
p2678
I12
sS'mitt'
p2679
I1
sS'exercise'
p2680
I2
sS'body'
p2681
I3
sS'focuses'
p2682
I1
sS'exchange'
p2683
I1
sS'commercial'
p2684
I1
sS'punch'
p2685
I1
sS'delivering'
p2686
I1
sS'following'
p2687
I4
sS'slogans'
p2688
I1
sS'others'
p2689
I4
sS'ukraine'
p2690
I1
sS'great'
p2691
I3
sS'skool'
p2692
I1
sS'involved'
p2693
I1
sS'casino'
p2694
I1
sS'alaska'
p2695
I1
sS'later'
p2696
I1
sS'suggests'
p2697
I2
sS'sangh'
p2698
I2
sS'painter'
p2699
I1
sS'defeat'
p2700
I1
sS'opinion'
p2701
I3
sS'residents'
p2702
I2
sS'gene'
p2703
I1
sS'makes'
p2704
I4
sS'explain'
p2705
I1
sS'holmes'
p2706
I1
sS'named'
p2707
I1
sS'firefox'
p2708
I1
sS'apple'
p2709
I7
sS'deputy'
p2710
I3
sS'egypt'
p2711
I33
sS'presidents'
p2712
I1
sS'pariahs'
p2713
I1
sS'dedicated'
p2714
I1
sS'private'
p2715
I2
sS'sixty'
p2716
I1
sS'names'
p2717
I1
sS'scandal'
p2718
I4
sS'festivals'
p2719
I2
sS'singing'
p2720
I1
sS'cloud'
p2721
I2
sS'standing'
p2722
I1
sS'from'
p2723
I53
sS'firefighting'
p2724
I4
sS'failed'
p2725
I1
sS'remains'
p2726
I6
sS'next'
p2727
I7
sS'doubt'
p2728
I3
sS'skidded'
p2729
I1
sS'expanding'
p2730
I1
sS'frida'
p2731
I1
sS'panel'
p2732
I3
sS'parliament'
p2733
I10
sS'formally'
p2734
I1
sS'journalists'
p2735
I1
sS'started'
p2736
I3
sS'becomes'
p2737
I2
sS'heir'
p2738
I2
sS'about'
p2739
I31
sS'missile'
p2740
I3
sS'dealings'
p2741
I1
sS'proton'
p2742
I1
sS'carrying'
p2743
I2
sS'israelis'
p2744
I1
sS'sharply'
p2745
I1
sS'veered'
p2746
I1
sS'baby'
p2747
I9
sS'confederations'
p2748
I2
sS'testifies'
p2749
I3
sS'dougherty'
p2750
I1
sS'appointed'
p2751
I3
sS'women'
p2752
I15
sS'account'
p2753
I3
sS'sanctions'
p2754
I2
sS'this'
p2755
I9
sS'asenath'
p2756
I1
sS'challenge'
p2757
I3
sS'prager'
p2758
I1
sS'recession'
p2759
I1
sS'donut'
p2760
I1
sS'universe'
p2761
I1
sS'narratives'
p2762
I1
sS'meet'
p2763
I5
sS'drops'
p2764
I2
sS'dissolve'
p2765
I2
sS'control'
p2766
I6
sS'beijing'
p2767
I2
sS'links'
p2768
I2
sS'painkiller'
p2769
I2
sS'spying'
p2770
I7
sS'high'
p2771
I13
sS'effectively'
p2772
I1
sS'villain'
p2773
I1
sS'nears'
p2774
I1
sS'something'
p2775
I4
sS'sought'
p2776
I3
sS'wonderful'
p2777
I2
sS'rape'
p2778
I5
sS'united'
p2779
I12
sS'daring'
p2780
I1
sS'jails'
p2781
I1
sS'handover'
p2782
I1
sS'africans'
p2783
I1
sS'sidewalks'
p2784
I1
sS'struggles'
p2785
I1
sS'regions'
p2786
I1
sS'seeds'
p2787
I1
sS'animal'
p2788
I1
sS'instead'
p2789
I3
sS'scitech'
p2790
I1
sS'zambia'
p2791
I1
sS'airline'
p2792
I5
sS'profile'
p2793
I3
sS'hurdles'
p2794
I1
sS'endorsements'
p2795
I1
sS'attend'
p2796
I1
sS'farm'
p2797
I1
sS'stop'
p2798
I4
sS'ronald'
p2799
I1
sS'vineyards'
p2800
I2
sS'abuse'
p2801
I8
sS'klan'
p2802
I1
sS'ties'
p2803
I2
sS'fray'
p2804
I2
sS'milos'
p2805
I1
sS'bombers'
p2806
I1
sS'democracy'
p2807
I2
sS'famous'
p2808
I1
sS'goines'
p2809
I1
sS'counter'
p2810
I1
sS'acquitted'
p2811
I3
sS'chief'
p2812
I3
sS'spain'
p2813
I1
sS'allow'
p2814
I2
sS'furious'
p2815
I1
sS'addiction'
p2816
I1
sS'executives'
p2817
I1
sS'jolie'
p2818
I2
sS'ramzan'
p2819
I2
sS'longest'
p2820
I2
sS'holds'
p2821
I1
sS'sanctioned'
p2822
I1
sS'jiri'
p2823
I1
sS'insight'
p2824
I2
sS'wilds'
p2825
I1
sS'celebrations'
p2826
I1
sS'including'
p2827
I8
sS'looks'
p2828
I6
sS'superior'
p2829
I1
sS'till'
p2830
I1
sS'overvalue'
p2831
I1
sS'rubio'
p2832
I1
sS'labor'
p2833
I2
sS'resorting'
p2834
I1
sS'tyler'
p2835
I1
sS'degrees'
p2836
I1
sS'stalled'
p2837
I1
sS'reilly'
p2838
I2
sS'2014'
p2839
I1
sS'criminal'
p2840
I2
sS'2011'
p2841
I2
sS'2013'
p2842
I6
sS'2012'
p2843
I2
sS'puts'
p2844
I1
sS'bumbling'
p2845
I1
sS'crash'
p2846
I5
sS'auto'
p2847
I1
sS'material'
p2848
I2
sS'damages'
p2849
I1
sS'unarmed'
p2850
I2
sS'cutting'
p2851
I2
sS'front'
p2852
I2
sS'republican'
p2853
I1
sS'flee'
p2854
I1
sS'presidential'
p2855
I2
sS'crass'
p2856
I1
sS'landings'
p2857
I2
sS'articles'
p2858
I10
sS'airports'
p2859
I2
sS'warned'
p2860
I3
sS'university'
p2861
I3
sS'identified'
p2862
I1
sS'morris'
p2863
I1
sS'magnitude'
p2864
I1
sS'darce'
p2865
I1
sS'truth'
p2866
I1
sS'interview'
p2867
I1
sS'cocoon'
p2868
I1
sS'bills'
p2869
I1
sS'commonwealth'
p2870
I1
sS'fare'
p2871
I1
sS'doing'
p2872
I2
sS'globe'
p2873
I2
sS'serbia'
p2874
I2
sS'conquers'
p2875
I2
sS'fraught'
p2876
I1
sS'society'
p2877
I1
sS'books'
p2878
I2
sS'static'
p2879
I7
sS'variety'
p2880
I1
sS'measure'
p2881
I1
sS'lentil'
p2882
I1
sS'irregularities'
p2883
I1
sS'sexual'
p2884
I2
sS'witness'
p2885
I2
sS'secretly'
p2886
I1
sS'frontier'
p2887
I1
sS'armor'
p2888
I1
sS'announces'
p2889
I1
sS'defend'
p2890
I1
sS'criminally'
p2891
I1
sS'chaos'
p2892
I2
sS'islamist'
p2893
I5
sS'rossi'
p2894
I1
sS'hilarious'
p2895
I1
sS'thriving'
p2896
I3
sS'calif'
p2897
I1
sS'dive'
p2898
I1
sS'bart'
p2899
I1
sS'achievements'
p2900
I1
sS'shut'
p2901
I1
sS'alleged'
p2902
I2
sS'dictionary'
p2903
I1
sS'spot'
p2904
I1
sS'fourteen'
p2905
I1
sS'regulators'
p2906
I1
sS'jill'
p2907
I1
sS'york'
p2908
I23
sS'rejoice'
p2909
I1
sS'reporters'
p2910
I1
sS'princess'
p2911
I3
sS'resumed'
p2912
I1
sS'radwanska'
p2913
I2
sS'interaction'
p2914
I1
sS'allies'
p2915
I2
sS'applications'
p2916
I3
sS'ruins'
p2917
I1
sS'could'
p2918
I10
sS'florida'
p2919
I5
sS'times'
p2920
I4
sS'counterpart'
p2921
I1
sS'conversation'
p2922
I1
sS'resumes'
p2923
I3
sS'davis'
p2924
I2
sS'rumored'
p2925
I2
sS'austin'
p2926
I1
sS'museum'
p2927
I2
sS'south'
p2928
I15
sS'designed'
p2929
I1
sS'unspent'
p2930
I1
sS'unwanted'
p2931
I1
sS'blogger'
p2932
I1
sS'powerful'
p2933
I2
sS'wondered'
p2934
I1
sS'wikileaks'
p2935
I3
sS'owner'
p2936
I2
sS'watchman'
p2937
I1
sS'suck'
p2938
I1
sS'braces'
p2939
I1
sS'disaster'
p2940
I1
sS'legislative'
p2941
I1
sS'ancient'
p2942
I2
sS'fair'
p2943
I1
sS'festival'
p2944
I1
sS'unknown'
p2945
I1
sS'accent'
p2946
I2
sS'system'
p2947
I4
sS'inmate'
p2948
I1
sS'their'
p2949
I39
sS'attack'
p2950
I13
sS'wrapped'
p2951
I3
sS'pakistani'
p2952
I1
sS'final'
p2953
I5
sS'interests'
p2954
I1
sS'enforcement'
p2955
I1
sS'stomach'
p2956
I1
sS'craziest'
p2957
I1
sS'viktor'
p2958
I1
sS'hotshots'
p2959
I6
sS'environmental'
p2960
I1
sS'july'
p2961
I4
sS'oberlin'
p2962
I1
sS'elite'
p2963
I3
sS'institution'
p2964
I1
sS'filled'
p2965
I1
sS'waist'
p2966
I1
sS'ipad'
p2967
I1
sS'photograph'
p2968
I1
sS'ultimatum'
p2969
I7
sS'penhaul'
p2970
I1
sS'bittermann'
p2971
I1
sS'things'
p2972
I3
sS'course'
p2973
I1
sS'reacted'
p2974
I2
sS'submitted'
p2975
I2
sS'patients'
p2976
I1
sS'briefing'
p2977
I3
sS'abolished'
p2978
I1
sS'wildernesses'
p2979
I1
sS'spurs'
p2980
I1
sS'half'
p2981
I2
sS'partnership'
p2982
I2
sS'casethe'
p2983
I1
sS'comfortable'
p2984
I1
sS'tonight'
p2985
I1
sS'mogul'
p2986
I1
sS'defending'
p2987
I1
sS'have'
p2988
I39
sS'close'
p2989
I3
sS'need'
p2990
I1
sS'curved'
p2991
I1
sS'turn'
p2992
I1
sS'border'
p2993
I2
sS'linked'
p2994
I3
sS'catholic'
p2995
I4
sS'documents'
p2996
I2
sS'pursued'
p2997
I1
sS'agency'
p2998
I9
sS'able'
p2999
I1
sS'precipice'
p3000
I1
sS'concerns'
p3001
I2
sS'serino'
p3002
I1
sS'which'
p3003
I4
sS'truck'
p3004
I3
sS'korean'
p3005
I1
sS'martha'
p3006
I1
sS'fuels'
p3007
I1
sS'adieu'
p3008
I1
sS'unless'
p3009
I2
sS'clash'
p3010
I1
sS'petrol'
p3011
I1
sS'frontman'
p3012
I1
sS'montana'
p3013
I2
sS'eight'
p3014
I4
sS'device'
p3015
I2
sS'achilles'
p3016
I1
sS'camped'
p3017
I2
sS'class'
p3018
I2
sS'ancestors'
p3019
I1
sS'consequences'
p3020
I1
sS'gather'
p3021
I2
sS'request'
p3022
I4
sS'disease'
p3023
I1
sS'face'
p3024
I3
sS'looked'
p3025
I2
sS'prickly'
p3026
I1
sS'pictures'
p3027
I2
sS'businessman'
p3028
I1
sS'bordeaux'
p3029
I1
sS'fied'
p3030
I1
sS'scrap'
p3031
I1
sS'goals'
p3032
I1
sS'atmosphere'
p3033
I1
sS'selection'
p3034
I1
sS'heritage'
p3035
I1
sS'agreed'
p3036
I3
sS'charles'
p3037
I1
sS'wins'
p3038
I1
sS'bring'
p3039
I1
sS'democrats'
p3040
I3
sS'utter'
p3041
I1
sS'fear'
p3042
I6
sS'asylum'
p3043
I25
sS'economist'
p3044
I1
sS'debate'
p3045
I3
sS'decade'
p3046
I1
sS'principal'
p3047
I1
sS'trying'
p3048
I6
sS'based'
p3049
I3
sS'unfinished'
p3050
I1
sS'sheriff'
p3051
I1
sS'mumbai'
p3052
I1
sS'championed'
p3053
I1
sS'millennia'
p3054
I1
sS'pickup'
p3055
I2
sS'should'
p3056
I3
sS'unable'
p3057
I2
sS'fuel'
p3058
I2
sS'marriage'
p3059
I7
sS'local'
p3060
I7
sS'hope'
p3061
I2
sS'regularly'
p3062
I1
sS'move'
p3063
I3
sS'topple'
p3064
I1
sS'watching'
p3065
I3
sS'whistleblower'
p3066
I1
sS'background'
p3067
I2
sS'maritime'
p3068
I1
sS'likely'
p3069
I2
sS'joint'
p3070
I1
sS'october'
p3071
I3
sS'checkpoints'
p3072
I1
sS'burglary'
p3073
I1
sS'tossed'
p3074
I1
sS'kong'
p3075
I5
sS'kazakhstan'
p3076
I9
sS'areas'
p3077
I1
sS'trucks'
p3078
I3
sS'colo'
p3079
I1
sS'mohammed'
p3080
I1
sS'taxes'
p3081
I1
sS'contain'
p3082
I1
sS'ohio'
p3083
I3
sS'conduct'
p3084
I1
sS'generations'
p3085
I1
sS'view'
p3086
I1
sS'available'
p3087
I1
sS'omission'
p3088
I1
sS'accuser'
p3089
I1
sS'national'
p3090
I8
sS'pitch'
p3091
I2
sS'turbulent'
p3092
I1
sS'yousafzai'
p3093
I1
sS'officials'
p3094
I9
sS'wetland'
p3095
I1
sS'desperate'
p3096
I1
sS'refrained'
p3097
I1
sS'battery'
p3098
I2
sS'danger'
p3099
I1
sS'washable'
p3100
I1
sS'wire'
p3101
I1
sS'televised'
p3102
I2
sS'agnieszka'
p3103
I1
sS'reform'
p3104
I3
sS'nuclear'
p3105
I1
sS'nightmare'
p3106
I1
sS'droughts'
p3107
I1
sS'purses'
p3108
I1
sS'oversight'
p3109
I1
sS'state'
p3110
I15
sS'tens'
p3111
I1
sS'progress'
p3112
I4
sS'brosnan'
p3113
I2
sS'shiite'
p3114
I1
sS'ends'
p3115
I3
sS'cristiano'
p3116
I1
sS'janet'
p3117
I1
sS'monarchy'
p3118
I1
sS'agencies'
p3119
I1
sS'onetime'
p3120
I1
sS'group'
p3121
I10
sS'weary'
p3122
I1
sS'lawsuit'
p3123
I7
sS'boxing'
p3124
I1
sS'garden'
p3125
I2
sS'karzai'
p3126
I3
sS'restrictions'
p3127
I2
sS'hits'
p3128
I1
sS'southeast'
p3129
I1
sS'career'
p3130
I1
sS'taking'
p3131
I2
sS'vanishing'
p3132
I1
sS'drug'
p3133
I7
sS'strains'
p3134
I2
sS'figures'
p3135
I1
sS'bristol'
p3136
I1
sS'safely'
p3137
I1
sS'jersey'
p3138
I1
sS'otherwise'
p3139
I1
sS'wall'
p3140
I7
sS'tuesday'
p3141
I60
sS'wonder'
p3142
I3
sS'walk'
p3143
I1
sS'taylor'
p3144
I2
sS'cousin'
p3145
I2
sS'kings'
p3146
I1
sS'beach'
p3147
I1
sS'nomination'
p3148
I1
sS'withdrawn'
p3149
I1
sS'quit'
p3150
I2
sS'silvio'
p3151
I1
sS'aligning'
p3152
I1
sS'trademark'
p3153
I3
sS'responds'
p3154
I1
sS'faraj'
p3155
I1
sS'willing'
p3156
I1
sS'slowly'
p3157
I1
sS'flopping'
p3158
I1
sS'proposal'
p3159
I4
sS'hernandez'
p3160
I6
sS'shoulders'
p3161
I1
sS'commuter'
p3162
I1
sS'winklevoss'
p3163
I2
sS'deer'
p3164
I1
sS'climate'
p3165
I9
sS'player'
p3166
I1
sS'ensuring'
p3167
I1
sS'minneapolis'
p3168
I1
sS'corks'
p3169
I1
sS'kicks'
p3170
I2
sS'last'
p3171
I15
sS'atlanta'
p3172
I3
sS'fellow'
p3173
I1
sS'mourning'
p3174
I1
sS'volunteer'
p3175
I3
sS'associated'
p3176
I2
sS'homes'
p3177
I1
sS'2016'
p3178
I1
sS'couple'
p3179
I1
sS'abandoned'
p3180
I2
sS'decades'
p3181
I3
sS'runway'
p3182
I1
sS'appearance'
p3183
I3
sS'britain'
p3184
I1
sS'lepage'
p3185
I1
sS'choices'
p3186
I2
sS'will'
p3187
I17
sS'stunning'
p3188
I1
sS'limbo'
p3189
I1
sS'rigged'
p3190
I1
sS'examiner'
p3191
I1
sS'almost'
p3192
I3
sS'site'
p3193
I2
sS'surface'
p3194
I1
sS'helped'
p3195
I6
sS'girlfriend'
p3196
I1
sS'dems'
p3197
I2
sS'disclosures'
p3198
I2
sS'sits'
p3199
I1
sS'capture'
p3200
I1
sS'terrorist'
p3201
I3
sS'newsquiz'
p3202
I1
sS'perhaps'
p3203
I1
sS'administration'
p3204
I5
sS'connection'
p3205
I2
sS'defiant'
p3206
I2
sS'bishop'
p3207
I1
sS'paulo'
p3208
I4
sS'unity'
p3209
I1
sS'parts'
p3210
I3
sS'swift'
p3211
I1
sS'tumbles'
p3212
I1
sS'units'
p3213
I1
sS'party'
p3214
I7
sS'glaring'
p3215
I2
sS'tapped'
p3216
I1
sS'paula'
p3217
I3
sS'difficult'
p3218
I1
sS'injured'
p3219
I3
sS'tighten'
p3220
I1
sS'http'
p3221
I7
sS'promoters'
p3222
I1
sS'bald'
p3223
I1
sS'effect'
p3224
I2
sS'discredited'
p3225
I1
sS'student'
p3226
I5
sS'fierce'
p3227
I1
sS'afghan'
p3228
I6
sS'warming'
p3229
I1
sS'protecting'
p3230
I1
sS'center'
p3231
I5
sS'records'
p3232
I1
sS'indonesia'
p3233
I5
sS'well'
p3234
I2
sS'fighting'
p3235
I3
sS'antonio'
p3236
I1
sS'rife'
p3237
I1
sS'patterns'
p3238
I1
sS'oops'
p3239
I1
sS'drawing'
p3240
I1
sS'latest'
p3241
I7
sS'restore'
p3242
I1
sS'newest'
p3243
I2
sS'rocket'
p3244
I20
sS'less'
p3245
I5
sS'moments'
p3246
I2
sS'rebuffing'
p3247
I1
sS'executive'
p3248
I3
sS'domestic'
p3249
I1
sS'spielberg'
p3250
I1
sS'sources'
p3251
I2
sS'clinic'
p3252
I2
sS'dakota'
p3253
I1
sS'tough'
p3254
I1
sS'paul'
p3255
I2
sS'graduate'
p3256
I1
sS'field'
p3257
I1
sS'satellites'
p3258
I3
sS'residential'
p3259
I2
sS'point'
p3260
I1
sS'logged'
p3261
I1
sS'hall'
p3262
I2
sS'arresting'
p3263
I2
sS'appeared'
p3264
I3
sS'book'
p3265
I3
sS'nato'
p3266
I6
sS'maintaining'
p3267
I1
sS'clipped'
p3268
I1
sS'somali'
p3269
I3
sS'unprecedented'
p3270
I1
sS'kick'
p3271
I2
sS'fate'
p3272
I1
sS'government'
p3273
I24
sS'overdoses'
p3274
I1
sS'protesters'
p3275
I10
sS'increases'
p3276
I1
sS'historic'
p3277
I3
sS'five'
p3278
I9
sS'know'
p3279
I4
sS'facial'
p3280
I1
sS'press'
p3281
I3
sS'tick'
p3282
I2
sS'loss'
p3283
I1
sS'dubai'
p3284
I2
sS'like'
p3285
I5
sS'lost'
p3286
I3
sS'exploiting'
p3287
I1
sS'stashing'
p3288
I1
sS'admitted'
p3289
I1
sS'loses'
p3290
I3
sS'backlash'
p3291
I1
sS'hosts'
p3292
I1
sS'journalist'
p3293
I1
sS'martin'
p3294
I11
sS'become'
p3295
I3
sS'defterios'
p3296
I1
sS'works'
p3297
I1
sS'manned'
p3298
I1
sS'backlog'
p3299
I1
sS'italian'
p3300
I2
sS'accessible'
p3301
I1
sS'awash'
p3302
I1
sS'because'
p3303
I2
sS'smoothly'
p3304
I1
sS'twitter'
p3305
I1
sS'village'
p3306
I1
sS'junk'
p3307
I1
sS'authority'
p3308
I1
sS'hair'
p3309
I1
sS'wider'
p3310
I1
sS'growth'
p3311
I3
sS'warmer'
p3312
I1
sS'recommendation'
p3313
I1
sS'home'
p3314
I6
sS'empire'
p3315
I2
sS'blade'
p3316
I1
sS'recognition'
p3317
I1
sS'lead'
p3318
I4
sS'broad'
p3319
I1
sS'avoid'
p3320
I2
sS'separate'
p3321
I1
sS'constantly'
p3322
I1
sS'rewarding'
p3323
I1
sS'does'
p3324
I4
sS'wendy'
p3325
I2
sS'bosses'
p3326
I1
sS'glacial'
p3327
I1
sS'leader'
p3328
I8
sS'medieval'
p3329
I1
sS'slur'
p3330
I1
sS'asteroid'
p3331
I2
sS'journal'
p3332
I4
sS'pressure'
p3333
I1
sS'slum'
p3334
I1
sS'loans'
p3335
I2
sS'refuge'
p3336
I2
sS'transformations'
p3337
I1
sS'payout'
p3338
I1
sS'sister'
p3339
I1
sS'drumming'
p3340
I1
sS'rare'
p3341
I1
sS'carried'
p3342
I1
sS'getting'
p3343
I4
sS'column'
p3344
I1
sS'freedom'
p3345
I4
sS'withdrew'
p3346
I1
sS'shoes'
p3347
I1
sS'urged'
p3348
I1
sS'angeles'
p3349
I1
sS'statement'
p3350
I2
sS'fatally'
p3351
I4
sS'greensboro'
p3352
I1
sS'software'
p3353
I1
sS'baseless'
p3354
I1
sS'apps'
p3355
I2
sS'previously'
p3356
I1
sS'fawzia'
p3357
I2
sS'warrants'
p3358
I1
sS'washington'
p3359
I11
sS'billions'
p3360
I1
sS'chris'
p3361
I2
sS'weather'
p3362
I3
sS'lung'
p3363
I1
sS'tiny'
p3364
I1
sS'female'
p3365
I2
sS'artists'
p3366
I1
sS'yankee'
p3367
I1
sS'accused'
p3368
I5
sS'additional'
p3369
I1
sS'housing'
p3370
I1
sS'firefighter'
p3371
I1
sS'reigned'
p3372
I1
sS'spread'
p3373
I2
sS'biggest'
p3374
I2
sS'phenomenon'
p3375
I1
sS'jason'
p3376
I1
sS'building'
p3377
I4
sS'cricket'
p3378
I2
sS'north'
p3379
I8
sS'stadium'
p3380
I1
sS'triggered'
p3381
I1
sS'funds'
p3382
I3
sS'sequel'
p3383
I1
sS'xinhua'
p3384
I2
sS'delivery'
p3385
I1
sS'westport'
p3386
I1
sS'repeated'
p3387
I1
sS'gain'
p3388
I1
sS'courts'
p3389
I1
sS'made'
p3390
I12
sS'zeman'
p3391
I1
sS'places'
p3392
I1
sS'whether'
p3393
I4
sS'wish'
p3394
I2
sS'official'
p3395
I5
sS'smooth'
p3396
I1
sS'hosting'
p3397
I1
sS'record'
p3398
I2
sS'below'
p3399
I1
sS'stories'
p3400
I2
sS'ruling'
p3401
I3
sS'casts'
p3402
I1
sS'heiress'
p3403
I1
sS'problem'
p3404
I4
sS'minutes'
p3405
I2
sS'stirring'
p3406
I1
sS'supreme'
p3407
I3
sS'unusual'
p3408
I1
sS'deaths'
p3409
I2
sS'recognize'
p3410
I1
sS'romney'
p3411
I2
sS'dura'
p3412
I1
sS'rome'
p3413
I1
sS'beats'
p3414
I1
sS'favelas'
p3415
I1
sS'sparks'
p3416
I1
sS'shooting'
p3417
I8
sS'worse'
p3418
I1
sS'pile'
p3419
I1
sS'diego'
p3420
I3
sS'excites'
p3421
I1
sS'slaughterhouse'
p3422
I1
sS'deadly'
p3423
I4
sS'silenced'
p3424
I1
sS'boot'
p3425
I1
sS'forests'
p3426
I1
sS'illinois'
p3427
I2
sS'fire'
p3428
I10
sS'other'
p3429
I15
sS'details'
p3430
I3
sS'stumps'
p3431
I1
sS'granite'
p3432
I2
sS'illegally'
p3433
I1
sS'francisco'
p3434
I7
sS'star'
p3435
I3
sS'monday'
p3436
I35
sS'respects'
p3437
I1
sS'ideological'
p3438
I1
sS'june'
p3439
I7
sS'stay'
p3440
I4
sS'chance'
p3441
I1
sS'napolitano'
p3442
I1
sS'acquits'
p3443
I1
sS'friends'
p3444
I2
sS'starting'
p3445
I1
sS'entertainment'
p3446
I1
sS'earthquake'
p3447
I2
sS'cerebral'
p3448
I1
sS'searched'
p3449
I1
sS'rural'
p3450
I1
sS'indirectly'
p3451
I1
sS'taksim'
p3452
I1
s.