(lp0
(dp1
S'input'
p2
(F86.12666255723504
F21.694528542275403
tp3
sS'output'
p4
F159.57159993324515
sa(dp5
g2
(F64.67893890839984
F39.39959024201581
tp6
sg4
F0.0
sa(dp7
g2
(F76.40353320526046
F25.88655350472297
tp8
sg4
F191.13650448572443
sa(dp9
g2
(F53.18579307560504
F44.3797868303116
tp10
sg4
F0.0
sa(dp11
g2
(F77.26985326640126
F2.0995065939142243
tp12
sg4
F19.20559389001369
sa(dp13
g2
(F74.68996045934124
F23.878725203324496
tp14
sg4
F172.91087034171167
sa(dp15
g2
(F57.08262477787453
F31.311522436530776
tp16
sg4
F0.0
sa(dp17
g2
(F75.85843342779162
F3.863097006198013
tp18
sg4
F30.592644620032985
sa(dp19
g2
(F50.251927322336485
F44.40482729751442
tp20
sg4
F0.0
sa(dp21
g2
(F61.15261220273177
F0.1389701077296912
tp22
sg4
F17.367622805171948
sa(dp23
g2
(F97.10109417834806
F10.934720010640664
tp24
sg4
F55.941682790987734
sa(dp25
g2
(F65.86989642654031
F41.439155951704976
tp26
sg4
F0.0
sa(dp27
g2
(F66.35042284625008
F47.348685476967944
tp28
sg4
F0.0
sa(dp29
g2
(F76.95366615453693
F26.14675772169633
tp30
sg4
F225.9249760193681
sa(dp31
g2
(F67.08308910095796
F1.6360420564075662
tp32
sg4
F23.716669251025614
sa(dp33
g2
(F85.63911232275984
F4.723933687276466
tp34
sg4
F41.20128843012049
sa(dp35
g2
(F91.06166928336353
F23.24282005469402
tp36
sg4
F134.52065897412334
sa(dp37
g2
(F85.51526839233482
F14.364522066745838
tp38
sg4
F106.97687883574139
sa(dp39
g2
(F93.4062318671466
F44.914848374711525
tp40
sg4
F149.1174979717103
sa(dp41
g2
(F72.68897192007991
F40.28930244622948
tp42
sg4
F0.0
sa(dp43
g2
(F97.96454713816837
F31.84671269554322
tp44
sg4
F158.35585080218232
sa(dp45
g2
(F55.41602243625779
F7.597582718684681
tp46
sg4
F70.03802768949929
sa(dp47
g2
(F80.19463303213158
F33.9357011206372
tp48
sg4
F55.13170900508411
sa(dp49
g2
(F88.84659252558565
F48.17142160315612
tp50
sg4
F0.0
sa(dp51
g2
(F73.19988690472239
F43.463444942621365
tp52
sg4
F0.0
sa(dp53
g2
(F68.9907933027564
F41.3566772616366
tp54
sg4
F0.0
sa(dp55
g2
(F58.34223171714771
F42.64262470309158
tp56
sg4
F0.0
sa(dp57
g2
(F71.70299874679984
F40.53717419501472
tp58
sg4
F0.0
sa(dp59
g2
(F64.85582004632269
F4.456315781391207
tp60
sg4
F63.39663973058328
sa(dp61
g2
(F82.33846009366586
F9.514097211257216
tp62
sg4
F58.29693284746965
sa(dp63
g2
(F55.73481518517179
F23.1707906206273
tp64
sg4
F0.0
sa(dp65
g2
(F63.5026867662269
F47.80628982310328
tp66
sg4
F0.0
sa(dp67
g2
(F75.07616694802205
F1.6317065952950682
tp68
sg4
F20.50103641937626
sa(dp69
g2
(F70.13843541736144
F7.569428531522771
tp70
sg4
F79.82592889831432
sa(dp71
g2
(F70.44688520957216
F47.372067663481886
tp72
sg4
F0.0
sa(dp73
g2
(F78.35263498407058
F45.11317405540609
tp74
sg4
F0.0
sa(dp75
g2
(F78.01280421459205
F14.446412051388913
tp76
sg4
F116.39502532949292
sa(dp77
g2
(F72.96933310465452
F8.005061193723945
tp78
sg4
F85.16758720931573
sa(dp79
g2
(F91.54477262935458
F14.005325531798968
tp80
sg4
F89.59322903632767
sa(dp81
g2
(F56.449528238883886
F46.844731545066324
tp82
sg4
F0.0
sa(dp83
g2
(F91.60895025335076
F20.902209080844532
tp84
sg4
F118.40450482608338
sa(dp85
g2
(F85.84699918917164
F20.099358045994354
tp86
sg4
F138.0704728203244
sa(dp87
g2
(F87.99136928398644
F0.22095248431647785
tp88
sg4
F7.227094739566234
sa(dp89
g2
(F88.84187718690063
F5.499708467356118
tp90
sg4
F41.984182330132725
sa(dp91
g2
(F61.28510007949027
F12.231599141084693
tp92
sg4
F121.92141880489326
sa(dp93
g2
(F73.32564622781214
F33.33940826709827
tp94
sg4
F0.0
sa(dp95
g2
(F98.88476257967446
F43.06349155509711
tp96
sg4
F209.53652968129532
sa(dp97
g2
(F86.92841992882421
F40.9418966537621
tp98
sg4
F35.09699747612574
sa(dp99
g2
(F66.78546962015763
F20.165472920728583
tp100
sg4
F44.64107672178936
sa(dp101
g2
(F82.73052543421211
F24.91928808093069
tp102
sg4
F161.80082240736982
sa(dp103
g2
(F84.29949026120968
F4.903759923885021
tp104
sg4
F37.794968655854966
sa(dp105
g2
(F63.53173945632053
F28.917476276930852
tp106
sg4
F0.0
sa(dp107
g2
(F51.20726884377932
F13.874822981935381
tp108
sg4
F0.0
sa(dp109
g2
(F83.33673251880955
F37.302527209437876
tp110
sg4
F50.326687517288626
sa(dp111
g2
(F68.17729272273615
F25.629412843897637
tp112
sg4
F0.0
sa(dp113
g2
(F54.64734799856535
F28.740268163498918
tp114
sg4
F0.0
sa(dp115
g2
(F82.9773431941081
F48.01603169606846
tp116
sg4
F0.0
sa(dp117
g2
(F96.0795285516501
F31.567438114568713
tp118
sg4
F184.98172777579802
sa(dp119
g2
(F59.01554578706089
F10.036321679533867
tp120
sg4
F134.85655390870556
sa(dp121
g2
(F97.65338203110636
F34.84929755584906
tp122
sg4
F176.45889276377298
sa(dp123
g2
(F51.77904204245644
F1.7345126318501491
tp124
sg4
F200.11372876831342
sa(dp125
g2
(F56.47002362803324
F16.697582656538618
tp126
sg4
F0.0
sa(dp127
g2
(F92.3601548772412
F24.100470824878116
tp128
sg4
F121.80219409727678
sa(dp129
g2
(F74.39059459577942
F5.828492231951493
tp130
sg4
F59.33013355691442
sa(dp131
g2
(F56.62264511696918
F43.27158517497898
tp132
sg4
F0.0
sa(dp133
g2
(F61.35621677466476
F27.616338299789888
tp134
sg4
F0.0
sa(dp135
g2
(F94.45047383949891
F20.187956548507994
tp136
sg4
F132.95473920702835
sa(dp137
g2
(F74.73322378601108
F9.874656556189343
tp138
sg4
F85.15969407457841
sa(dp139
g2
(F81.29838807425489
F7.924252019031491
tp140
sg4
F66.6215321501388
sa(dp141
g2
(F62.67468979440776
F37.111158431112344
tp142
sg4
F0.0
sa(dp143
g2
(F96.48903715207976
F5.298593277993896
tp144
sg4
F28.03380486132129
sa(dp145
g2
(F59.481780766339824
F41.663979427480704
tp146
sg4
F0.0
sa(dp147
g2
(F95.62838943950149
F23.225880189205515
tp148
sg4
F117.01274129200299
sa(dp149
g2
(F92.89607417828609
F36.90099772048342
tp150
sg4
F179.308761783398
sa(dp151
g2
(F87.34175775291463
F38.02438139090704
tp152
sg4
F168.0990274545771
sa(dp153
g2
(F88.6407900232861
F25.489708168545754
tp154
sg4
F136.6099588539746
sa(dp155
g2
(F65.20511299467573
F49.73976376515331
tp156
sg4
F0.0
sa(dp157
g2
(F64.23075939493184
F24.301473165521802
tp158
sg4
F0.0
sa(dp159
g2
(F68.29627012121037
F26.728119887829195
tp160
sg4
F0.0
sa(dp161
g2
(F98.02101656988245
F23.905333172171346
tp162
sg4
F130.4756182838566
sa(dp163
g2
(F97.89718557776418
F15.637235103136543
tp164
sg4
F86.46595825966895
sa(dp165
g2
(F79.21495767978593
F25.923206994237745
tp166
sg4
F181.86915519216325
sa(dp167
g2
(F92.94111073061423
F7.031313907761244
tp168
sg4
F47.6630435198383
sa(dp169
g2
(F66.9693451006079
F31.628256622118684
tp170
sg4
F0.0
sa(dp171
g2
(F82.21073239928972
F22.774061298472994
tp172
sg4
F155.60070217624735
sa(dp173
g2
(F84.17559824320972
F0.9163218626736136
tp174
sg4
F11.949576906946719
sa(dp175
g2
(F68.3791836450356
F29.87359398796181
tp176
sg4
F0.0
sa(dp177
g2
(F61.394170493059605
F40.598985221207606
tp178
sg4
F0.0
sa(dp179
g2
(F97.1665780219665
F31.320040544272498
tp180
sg4
F161.4915138941436
sa(dp181
g2
(F72.24328017705835
F41.0183012959166
tp182
sg4
F0.0
sa(dp183
g2
(F50.51214564077737
F39.24141086974598
tp184
sg4
F0.0
sa(dp185
g2
(F54.37586961677447
F17.578743033618522
tp186
sg4
F0.0
sa(dp187
g2
(F75.05505460094336
F16.75549599718024
tp188
sg4
F140.28738889286439
sa(dp189
g2
(F58.53270786941688
F11.97366225253153
tp190
sg4
F46.61131215163219
sa(dp191
g2
(F68.02154543647558
F16.680740550231306
tp192
sg4
F162.2687017205946
sa(dp193
g2
(F97.23086038452655
F6.980817114660198
tp194
sg4
F44.2790132792622
sa(dp195
g2
(F90.11797304219542
F24.66765110837829
tp196
sg4
F116.38864054339177
sa(dp197
g2
(F97.17042883609426
F14.705667363450958
tp198
sg4
F95.3110334222815
sa(dp199
g2
(F50.6006764333481
F42.77341402070475
tp200
sg4
F0.0
sa(dp201
g2
(F80.09884869227562
F30.118678958256655
tp202
sg4
F175.25443065949003
sa(dp203
g2
(F81.14660567585287
F18.425671039215896
tp204
sg4
F118.98858885104595
sa(dp205
g2
(F75.98038717930709
F27.85462081266385
tp206
sg4
F124.65409326507897
sa(dp207
g2
(F62.470047238106716
F30.020924867845
tp208
sg4
F0.0
sa(dp209
g2
(F51.930083962807025
F21.010937715727678
tp210
sg4
F0.0
sa(dp211
g2
(F85.73946773661703
F6.978210100454785
tp212
sg4
F42.068161176621416
sa(dp213
g2
(F56.554377665487166
F38.4701260892916
tp214
sg4
F0.0
sa(dp215
g2
(F93.83473526281381
F46.17301795086684
tp216
sg4
F144.4719267649408
sa(dp217
g2
(F50.27625358691958
F43.36750698765173
tp218
sg4
F0.0
sa(dp219
g2
(F86.65421015696467
F43.793006702499426
tp220
sg4
F0.0
sa(dp221
g2
(F92.99409144868356
F48.95136835252007
tp222
sg4
F0.0
sa(dp223
g2
(F77.0120525802077
F43.22092602834189
tp224
sg4
F0.0
sa(dp225
g2
(F74.35184393716396
F22.72139964491752
tp226
sg4
F202.51169779472957
sa(dp227
g2
(F94.19561357034408
F4.442979292929062
tp228
sg4
F34.6191336467405
sa(dp229
g2
(F96.83587434625937
F19.559717634973943
tp230
sg4
F105.48545519106567
sa(dp231
g2
(F87.43304553244036
F48.61888378804278
tp232
sg4
F0.0
sa(dp233
g2
(F62.74631753911287
F43.3076841875944
tp234
sg4
F0.0
sa(dp235
g2
(F82.05041797181332
F29.076354888765525
tp236
sg4
F188.76898668666178
sa(dp237
g2
(F71.70143944798058
F5.75712083961103
tp238
sg4
F47.12098889698329
sa(dp239
g2
(F59.13728812047937
F29.736632495339187
tp240
sg4
F0.0
sa(dp241
g2
(F54.964641378829356
F13.971409673847218
tp242
sg4
F0.0
sa(dp243
g2
(F78.7633023163506
F39.0045639000902
tp244
sg4
F0.0
sa(dp245
g2
(F82.39313666805063
F18.876344107348608
tp246
sg4
F128.42703825594248
sa(dp247
g2
(F73.04372678635552
F2.364585654181467
tp248
sg4
F29.53479035475309
sa(dp249
g2
(F67.76556289467291
F33.46886088816144
tp250
sg4
F0.0
sa(dp251
g2
(F87.47806704482478
F38.673633249786256
tp252
sg4
F133.54743238413215
sa(dp253
g2
(F81.29844613345051
F5.414267861551219
tp254
sg4
F36.91364593427309
sa(dp255
g2
(F72.27694971858908
F21.997780225613177
tp256
sg4
F149.27621180121275
sa(dp257
g2
(F94.57577010337408
F12.561011864862081
tp258
sg4
F78.901532526638
sa(dp259
g2
(F88.70909576111313
F20.532525103492993
tp260
sg4
F128.7545646409022
sa(dp261
g2
(F77.96073914060179
F28.598122763110034
tp262
sg4
F155.94646469970854
sa(dp263
g2
(F96.70495954747764
F35.463066922410405
tp264
sg4
F161.8365303346555
sa(dp265
g2
(F72.98132419781064
F28.392368164973945
tp266
sg4
F0.0
sa(dp267
g2
(F72.90425926667322
F31.785233787787696
tp268
sg4
F0.0
sa(dp269
g2
(F91.88466221117292
F23.561734006989077
tp270
sg4
F147.91690470557936
sa(dp271
g2
(F57.31680972044943
F26.052245579920495
tp272
sg4
F0.0
sa(dp273
g2
(F82.90999032594553
F32.22451106117843
tp274
sg4
F216.9485826699199
sa(dp275
g2
(F62.6422951023428
F3.545237516513966
tp276
sg4
F49.90367412782198
sa(dp277
g2
(F66.53028274566392
F40.79933931030048
tp278
sg4
F0.0
sa(dp279
g2
(F70.11278700128318
F14.29333288242462
tp280
sg4
F114.54234544077796
sa(dp281
g2
(F65.28253935314747
F1.8370895177865887
tp282
sg4
F34.70303327386093
sa(dp283
g2
(F98.84625902370881
F20.69576421862664
tp284
sg4
F88.35810647736047
sa(dp285
g2
(F87.30502479533216
F35.14610509088384
tp286
sg4
F204.04548867654924
sa(dp287
g2
(F53.719279697680896
F31.54454615210761
tp288
sg4
F0.0
sa(dp289
g2
(F82.62676706115545
F11.814518192554196
tp290
sg4
F87.8157416900833
sa(dp291
g2
(F66.6084552792139
F16.998791272066597
tp292
sg4
F154.65175881514986
sa(dp293
g2
(F61.84131999138013
F12.41721324585407
tp294
sg4
F158.04328025682685
sa(dp295
g2
(F93.33290775513726
F0.7932470751165155
tp296
sg4
F11.150034259941874
sa(dp297
g2
(F62.648058929976244
F45.41479634641828
tp298
sg4
F0.0
sa(dp299
g2
(F92.72522891152188
F31.571352146304765
tp300
sg4
F206.04364700923043
sa(dp301
g2
(F87.26018931282806
F22.31755837565285
tp302
sg4
F142.1140732853877
sa(dp303
g2
(F81.1656409698773
F38.468516041873926
tp304
sg4
F0.0
sa(dp305
g2
(F68.60197707363864
F20.778849165770342
tp306
sg4
F86.13907714490689
sa(dp307
g2
(F60.380353274245934
F20.442601032865078
tp308
sg4
F0.0
sa(dp309
g2
(F58.93294778128862
F26.53518642298177
tp310
sg4
F0.0
sa(dp311
g2
(F57.9359631656225
F44.305784999335195
tp312
sg4
F0.0
sa(dp313
g2
(F82.80437172975428
F45.02402162238832
tp314
sg4
F0.0
sa(dp315
g2
(F63.186872751067035
F25.288552363040743
tp316
sg4
F0.0
sa(dp317
g2
(F70.03279630117827
F3.1663127912001654
tp318
sg4
F38.858020227680846
sa(dp319
g2
(F84.28593648577025
F26.18291539820073
tp320
sg4
F168.96729301963498
sa(dp321
g2
(F83.87202896865985
F38.16385510250369
tp322
sg4
F33.55929862870251
sa(dp323
g2
(F72.92354048252119
F12.42977311929263
tp324
sg4
F127.52523060184788
sa(dp325
g2
(F57.4004718426161
F7.139823337544849
tp326
sg4
F161.21272946425077
sa(dp327
g2
(F75.76754462733061
F39.61612172641441
tp328
sg4
F0.0
sa(dp329
g2
(F56.54463796707824
F12.504816409014957
tp330
sg4
F0.0
sa(dp331
g2
(F82.06329149722325
F17.1942094292478
tp332
sg4
F104.75632294212936
sa(dp333
g2
(F69.31558834593942
F7.113355528805743
tp334
sg4
F77.94070997850366
sa(dp335
g2
(F74.28396920748152
F25.84045260984163
tp336
sg4
F115.99591910501725
sa(dp337
g2
(F90.22989805848718
F40.73038001592616
tp338
sg4
F212.25166514163206
sa(dp339
g2
(F93.84871002415706
F14.640232672418286
tp340
sg4
F97.13966032335586
sa(dp341
g2
(F85.29199087565874
F31.794605239467487
tp342
sg4
F228.91079050067785
sa(dp343
g2
(F95.87955906541913
F46.232078658739624
tp344
sg4
F262.81307997079216
sa(dp345
g2
(F73.34332138864653
F6.370232037692469
tp346
sg4
F65.46430943238347
sa(dp347
g2
(F57.84042767821635
F30.518837264108168
tp348
sg4
F0.0
sa(dp349
g2
(F83.14426658888496
F29.231165548721442
tp350
sg4
F172.17285902169996
sa(dp351
g2
(F96.18742969845263
F20.45478650470191
tp352
sg4
F106.77514940712315
sa(dp353
g2
(F62.78144211878092
F32.28700971446175
tp354
sg4
F0.0
sa(dp355
g2
(F56.7791768893041
F13.701727598467917
tp356
sg4
F0.0
sa(dp357
g2
(F67.73611761699824
F27.161132582466717
tp358
sg4
F0.0
sa(dp359
g2
(F73.46402802158073
F27.213772776025785
tp360
sg4
F43.523954908551325
sa(dp361
g2
(F50.28962227380943
F36.51485834441931
tp362
sg4
F0.0
sa(dp363
g2
(F76.89028013278667
F46.27902853376871
tp364
sg4
F0.0
sa(dp365
g2
(F89.0974740490513
F15.046994525269842
tp366
sg4
F100.82280295193188
sa(dp367
g2
(F73.88290215943138
F37.78140139911555
tp368
sg4
F0.0
sa(dp369
g2
(F98.16129306621046
F29.449995703595594
tp370
sg4
F179.3054990059653
sa(dp371
g2
(F78.66195506372823
F47.39035619677632
tp372
sg4
F0.0
sa(dp373
g2
(F77.23680702871202
F23.0391859071526
tp374
sg4
F175.67412856011157
sa(dp375
g2
(F59.49039245821144
F37.68666627134817
tp376
sg4
F0.0
sa(dp377
g2
(F67.1286663560369
F16.45327261812175
tp378
sg4
F197.99372187367356
sa(dp379
g2
(F83.09548827276168
F8.03448033980121
tp380
sg4
F53.266201634770795
sa(dp381
g2
(F62.51626131021163
F5.010777646671899
tp382
sg4
F72.80987667147947
sa(dp383
g2
(F66.59975637596906
F44.61313394202649
tp384
sg4
F0.0
sa(dp385
g2
(F84.43627125249498
F24.9686143919434
tp386
sg4
F149.2240113593008
sa(dp387
g2
(F94.6103028203307
F20.64575380623453
tp388
sg4
F137.60005365399664
sa(dp389
g2
(F91.12993332826147
F2.6889190102444838
tp390
sg4
F17.142096516010422
sa(dp391
g2
(F58.76451066848977
F42.91626848137752
tp392
sg4
F0.0
sa(dp393
g2
(F62.80329783182293
F28.29018829832378
tp394
sg4
F0.0
sa(dp395
g2
(F84.28902941324503
F30.561047866303593
tp396
sg4
F164.11666331295007
sa(dp397
g2
(F61.286858035388924
F49.997398467507345
tp398
sg4
F0.0
sa(dp399
g2
(F74.56581311325729
F30.216137137605216
tp400
sg4
F0.0
sa(dp401
g2
(F64.01326489212764
F27.511539491513563
tp402
sg4
F0.0
sa(dp403
g2
(F70.76711581690284
F13.443135995474492
tp404
sg4
F100.57162730611954
sa(dp405
g2
(F89.19414759017461
F27.71322198613076
tp406
sg4
F174.9758786099199
sa(dp407
g2
(F87.66005752827508
F18.823466612457178
tp408
sg4
F123.76124974811218
sa(dp409
g2
(F86.32942800029188
F47.99950008201369
tp410
sg4
F0.0
sa(dp411
g2
(F83.73475325594686
F41.71759451453219
tp412
sg4
F0.0
sa(dp413
g2
(F58.46665452000403
F1.4370239361036985
tp414
sg4
F42.913056539720884
sa(dp415
g2
(F70.38322823030072
F14.48809109252091
tp416
sg4
F143.3937213638605
sa(dp417
g2
(F65.87249592380046
F30.83426918940152
tp418
sg4
F0.0
sa(dp419
g2
(F94.85458670853653
F0.25024226689341345
tp420
sg4
F7.110440450947118
sa(dp421
g2
(F50.286826320512326
F40.59647957161023
tp422
sg4
F0.0
sa(dp423
g2
(F73.54775780461024
F20.095872414123733
tp424
sg4
F173.80237942482333
sa(dp425
g2
(F50.5437336295922
F40.923034564759035
tp426
sg4
F0.0
sa(dp427
g2
(F61.05230230150116
F36.02476629171658
tp428
sg4
F0.0
sa(dp429
g2
(F51.50310796227394
F10.544224664980684
tp430
sg4
F0.0
sa(dp431
g2
(F68.04199036323661
F20.91595391332632
tp432
sg4
F85.24700597735117
sa(dp433
g2
(F87.06837065444853
F8.142745276705703
tp434
sg4
F55.99370827783155
sa(dp435
g2
(F85.32364023889068
F36.869926728976154
tp436
sg4
F132.6721987793363
sa(dp437
g2
(F78.72974575172886
F12.20167772678633
tp438
sg4
F82.52822257301054
sa(dp439
g2
(F50.14379612980618
F26.543733634483345
tp440
sg4
F0.0
sa(dp441
g2
(F96.25908216627508
F22.024233236347364
tp442
sg4
F106.26476400316199
sa(dp443
g2
(F82.39438417307721
F11.33047648011694
tp444
sg4
F74.47072002932997
sa(dp445
g2
(F78.47137587344638
F5.594687147895083
tp446
sg4
F54.36686945684807
sa(dp447
g2
(F92.35287383642537
F16.001111600114932
tp448
sg4
F89.89381037948544
sa(dp449
g2
(F78.0881850171433
F16.00782936125577
tp450
sg4
F101.65396893952617
sa(dp451
g2
(F97.04062001545941
F16.017826311951723
tp452
sg4
F74.35661943690931
sa(dp453
g2
(F76.29893556552737
F36.995240344468
tp454
sg4
F0.0
sa(dp455
g2
(F94.24599009971382
F6.992908834491129
tp456
sg4
F46.949353716626774
sa(dp457
g2
(F91.45250055863977
F15.999471232223561
tp458
sg4
F98.21484581134163
sa(dp459
g2
(F65.92122980608428
F48.54789703751605
tp460
sg4
F0.0
sa(dp461
g2
(F79.37118496582453
F2.1270661129718036
tp462
sg4
F24.538385276772406
sa(dp463
g2
(F63.18653143660876
F11.92737346996901
tp464
sg4
F163.32991533396475
sa(dp465
g2
(F61.38844048016721
F18.154012458764413
tp466
sg4
F0.0
sa(dp467
g2
(F55.91439883158453
F31.766784989553443
tp468
sg4
F0.0
sa(dp469
g2
(F88.64426680590915
F16.376227006848815
tp470
sg4
F95.4281202272537
sa(dp471
g2
(F53.90903465053367
F29.70704075416674
tp472
sg4
F0.0
sa(dp473
g2
(F50.369185864109554
F36.49830763544178
tp474
sg4
F0.0
sa(dp475
g2
(F63.93777197446944
F3.689599381016939
tp476
sg4
F51.809939485972734
sa(dp477
g2
(F79.26493365943338
F6.8183521405073
tp478
sg4
F50.914723335651296
sa(dp479
g2
(F90.26296747904647
F15.182976977363632
tp480
sg4
F77.38442256707144
sa(dp481
g2
(F90.53714964827488
F10.22007612641343
tp482
sg4
F60.84758745274836
sa(dp483
g2
(F80.52544113330025
F47.77707477655815
tp484
sg4
F0.0
sa(dp485
g2
(F55.34746211767321
F38.844621314808464
tp486
sg4
F0.0
sa(dp487
g2
(F65.90869619810952
F16.021487246289468
tp488
sg4
F140.66444207026592
sa(dp489
g2
(F65.31418325280738
F32.21313345299677
tp490
sg4
F0.0
sa(dp491
g2
(F68.93039198121829
F29.146865545694546
tp492
sg4
F0.0
sa(dp493
g2
(F75.03859193607327
F16.32724359450829
tp494
sg4
F154.10544997023817
sa(dp495
g2
(F81.98701079211011
F28.09648041861244
tp496
sg4
F222.83370263582503
sa(dp497
g2
(F61.46973662546861
F25.781434609763316
tp498
sg4
F0.0
sa(dp499
g2
(F92.28122466272275
F8.518029827692148
tp500
sg4
F48.91342287811956
sa(dp501
g2
(F76.68890384696837
F1.2309948095633405
tp502
sg4
F14.278718502188147
sa(dp503
g2
(F54.37208251193293
F6.172460131714169
tp504
sg4
F81.4070123838938
sa(dp505
g2
(F75.98038284893006
F7.014113105355446
tp506
sg4
F59.60782224646099
sa(dp507
g2
(F55.72507439644108
F34.8393864217024
tp508
sg4
F0.0
sa(dp509
g2
(F94.00982536879252
F49.92563639268685
tp510
sg4
F0.0
sa(dp511
g2
(F57.08397626543724
F48.61191763212653
tp512
sg4
F0.0
sa(dp513
g2
(F60.50902429210146
F49.80861403264973
tp514
sg4
F0.0
sa(dp515
g2
(F83.96192178178681
F7.938739280807922
tp516
sg4
F62.90676162135418
sa(dp517
g2
(F93.52323497274892
F27.54393217283934
tp518
sg4
F150.47527022249514
sa(dp519
g2
(F83.8232308331599
F39.37665442117117
tp520
sg4
F0.0
sa(dp521
g2
(F93.75211359294599
F49.83864808847184
tp522
sg4
F0.0
sa(dp523
g2
(F87.27448021826439
F8.291181125835683
tp524
sg4
F50.550720165444474
sa(dp525
g2
(F72.63754619698258
F46.901550058584384
tp526
sg4
F0.0
sa(dp527
g2
(F86.28145795560889
F20.64872841826757
tp528
sg4
F108.97627031857924
sa(dp529
g2
(F94.1303306077919
F34.88192449072214
tp530
sg4
F227.3082350357704
sa(dp531
g2
(F55.70286936412842
F8.631422144898742
tp532
sg4
F62.51566859626563
sa(dp533
g2
(F96.33432232948883
F33.426961188773944
tp534
sg4
F190.03005503541524
sa(dp535
g2
(F78.38355486899606
F8.014333287348329
tp536
sg4
F59.42830305015594
sa(dp537
g2
(F93.6800408260189
F36.07769525318735
tp538
sg4
F160.4007322476893
sa(dp539
g2
(F71.82352788034743
F38.899048036462176
tp540
sg4
F0.0
sa(dp541
g2
(F50.632741295693876
F0.12460009017693507
tp542
sg4
F194.24941346938803
sa(dp543
g2
(F89.60859001622711
F20.08172826701855
tp544
sg4
F102.48903465750972
sa(dp545
g2
(F70.1803562266083
F2.147470503297227
tp546
sg4
F22.472111426668718
sa(dp547
g2
(F58.04459272385553
F35.94048811002695
tp548
sg4
F0.0
sa(dp549
g2
(F79.13345687650622
F14.833750533663503
tp550
sg4
F122.72232127455162
sa(dp551
g2
(F62.73364081628411
F12.89285501068051
tp552
sg4
F122.25444534955203
sa(dp553
g2
(F50.97176680589279
F28.656402604049823
tp554
sg4
F0.0
sa(dp555
g2
(F57.40542598131798
F11.68425616519772
tp556
sg4
F18.30489304318282
sa(dp557
g2
(F62.195913209174215
F37.17503674106669
tp558
sg4
F0.0
sa(dp559
g2
(F59.94711004760833
F20.74757036200716
tp560
sg4
F0.0
sa(dp561
g2
(F72.44584792930284
F20.90917082386305
tp562
sg4
F200.63704868219384
sa(dp563
g2
(F86.27794810358068
F30.42270789618667
tp564
sg4
F180.46861093884408
sa(dp565
g2
(F85.3632581482905
F25.71664471399699
tp566
sg4
F162.674264440292
sa(dp567
g2
(F58.134733504825746
F26.036999386151383
tp568
sg4
F0.0
sa(dp569
g2
(F68.34964910222125
F46.868544848270915
tp570
sg4
F0.0
sa(dp571
g2
(F89.43971710002607
F8.95344842787535
tp572
sg4
F55.781237979432554
sa(dp573
g2
(F82.56346364468502
F28.040087393950223
tp574
sg4
F172.08244038201454
sa(dp575
g2
(F64.88122210123167
F48.79930638950604
tp576
sg4
F0.0
sa(dp577
g2
(F81.80956478695214
F9.131457038897778
tp578
sg4
F60.36620751640185
sa(dp579
g2
(F82.28433086749277
F11.60208062817375
tp580
sg4
F88.15949574650452
sa(dp581
g2
(F55.96798061390906
F28.337146398611683
tp582
sg4
F0.0
sa(dp583
g2
(F76.41416318308099
F46.46356645227974
tp584
sg4
F0.0
sa(dp585
g2
(F66.64458661530875
F46.944485124513385
tp586
sg4
F0.0
sa(dp587
g2
(F65.34787761827387
F30.582297018510214
tp588
sg4
F0.0
sa(dp589
g2
(F72.12823189876963
F39.64997085316592
tp590
sg4
F0.0
sa(dp591
g2
(F86.02413153112207
F8.736155165802373
tp592
sg4
F49.80991127646256
sa(dp593
g2
(F69.36969639981155
F8.712573859805905
tp594
sg4
F86.12429252662893
sa(dp595
g2
(F72.90496138769517
F26.943395486134964
tp596
sg4
F28.36759784618409
sa(dp597
g2
(F71.64036374196823
F47.71746053528337
tp598
sg4
F0.0
sa(dp599
g2
(F82.51965468997997
F22.530219467205843
tp600
sg4
F154.1027911205538
sa(dp601
g2
(F66.49813870626471
F11.992168642978035
tp602
sg4
F126.93348684516997
sa.