(lp0
(dp1
S'input'
p2
(F56.77809181070674
F19.15140884474257
F10.0
F375.0
tp3
sS'output'
p4
F0.0
sa(dp5
g2
(F86.84786828012706
F2.128857957528829
F17.0
F375.0
tp6
sg4
F3.9430609708366307
sa(dp7
g2
(F57.515130213844714
F39.86494688616532
F12.0
F750.0
tp8
sg4
F0.0
sa(dp9
g2
(F74.5425158120795
F46.45752479008143
F5.0
F750.0
tp10
sg4
F0.0
sa(dp11
g2
(F53.08860148401246
F35.67093583230726
F15.0
F1500.0
tp12
sg4
F0.0
sa(dp13
g2
(F87.40453895053474
F18.142052921361724
F20.0
F3000.0
tp14
sg4
F281.81214775131207
sa(dp15
g2
(F59.90895627746508
F9.984468323212509
F14.0
F1500.0
tp16
sg4
F192.28048627433617
sa(dp17
g2
(F96.8941508754415
F3.7523612562879007
F18.0
F1500.0
tp18
sg4
F52.1699995286505
sa(dp19
g2
(F71.69832300916816
F43.789667087868416
F2.0
F375.0
tp20
sg4
F0.0
sa(dp21
g2
(F87.17615767850967
F33.380155145751914
F9.0
F3000.0
tp22
sg4
F259.039846456679
sa(dp23
g2
(F87.82591876518849
F1.7990303721716672
F4.0
F3000.0
tp24
sg4
F40.54401558290015
sa(dp25
g2
(F81.38371561705857
F15.620251808335079
F9.0
F1500.0
tp26
sg4
F87.05548276477886
sa(dp27
g2
(F98.32831904299792
F23.53150937513137
F11.0
F3000.0
tp28
sg4
F131.66223077758193
sa(dp29
g2
(F85.60986408906999
F15.910229079253057
F6.0
F750.0
tp30
sg4
F60.31987926470204
sa(dp31
g2
(F83.33123423752463
F4.708433427032199
F6.0
F3000.0
tp32
sg4
F49.29221027914716
sa(dp33
g2
(F65.99534150024964
F11.585501715402646
F7.0
F375.0
tp34
sg4
F66.9017777061853
sa(dp35
g2
(F87.80758414686616
F21.771764771231915
F7.0
F750.0
tp36
sg4
F59.11442771074763
sa(dp37
g2
(F55.24036559179469
F36.43319368791739
F7.0
F375.0
tp38
sg4
F0.0
sa(dp39
g2
(F65.38660994333193
F18.09889830711017
F18.0
F3000.0
tp40
sg4
F246.549135263196
sa(dp41
g2
(F59.96183017898894
F38.886521742555
F12.0
F750.0
tp42
sg4
F0.0
sa(dp43
g2
(F54.29259000299018
F47.287495288423706
F7.0
F1500.0
tp44
sg4
F0.0
sa(dp45
g2
(F82.45190196305103
F29.858845086610287
F10.0
F375.0
tp46
sg4
F66.64200287736983
sa(dp47
g2
(F50.51679454811652
F8.730793868157633
F2.0
F3000.0
tp48
sg4
F0.0
sa(dp49
g2
(F97.20968004910908
F3.252505234056663
F6.0
F375.0
tp50
sg4
F7.320209154796605
sa(dp51
g2
(F98.15690932274639
F32.579796393296576
F1.0
F1500.0
tp52
sg4
F69.67140068891347
sa(dp53
g2
(F76.66143542368643
F21.28773237894375
F20.0
F1500.0
tp54
sg4
F230.02876091660605
sa(dp55
g2
(F81.34873023816009
F16.264809163915917
F6.0
F3000.0
tp56
sg4
F160.00198941437887
sa(dp57
g2
(F68.53086315147257
F2.578808823888062
F16.0
F3000.0
tp58
sg4
F66.78336264678894
sa(dp59
g2
(F84.23874362244223
F30.872531675598236
F9.0
F1500.0
tp60
sg4
F289.9756940308019
sa(dp61
g2
(F68.28477141737292
F46.91519430709776
F18.0
F750.0
tp62
sg4
F0.0
sa(dp63
g2
(F92.0158082082688
F39.66159051393258
F16.0
F3000.0
tp64
sg4
F194.65636605192606
sa(dp65
g2
(F56.38848202295138
F28.08150845579184
F18.0
F375.0
tp66
sg4
F0.0
sa(dp67
g2
(F93.14270046275941
F33.96260551962041
F19.0
F3000.0
tp68
sg4
F372.94634022826693
sa(dp69
g2
(F90.25427255897955
F19.015555037119135
F19.0
F3000.0
tp70
sg4
F202.9918393747909
sa(dp71
g2
(F82.76107593177854
F31.374248467723557
F3.0
F375.0
tp72
sg4
F101.83638324455332
sa(dp73
g2
(F62.379424283114545
F7.033570698697384
F2.0
F3000.0
tp74
sg4
F335.40389860647065
sa(dp75
g2
(F98.61456165606288
F38.92961592459273
F17.0
F1500.0
tp76
sg4
F381.48843737344293
sa(dp77
g2
(F97.0123339329071
F44.33384004540108
F8.0
F375.0
tp78
sg4
F98.30964037331408
sa(dp79
g2
(F72.83556794124947
F36.07239396802978
F15.0
F750.0
tp80
sg4
F0.0
sa(dp81
g2
(F87.30507367255501
F20.78428662888178
F9.0
F375.0
tp82
sg4
F48.25392201095093
sa(dp83
g2
(F55.818625666701436
F8.399198896441979
F2.0
F1500.0
tp84
sg4
F67.49378530142941
sa(dp85
g2
(F60.26038778899966
F6.706577314419998
F6.0
F375.0
tp86
sg4
F60.12000106101119
sa(dp87
g2
(F69.9396913535466
F1.6619103564046944
F19.0
F1500.0
tp88
sg4
F51.27935648436442
sa(dp89
g2
(F82.49269810075629
F42.22473252789863
F13.0
F1500.0
tp90
sg4
F0.0
sa(dp91
g2
(F83.67621289511689
F47.42167470086225
F16.0
F750.0
tp92
sg4
F0.0
sa(dp93
g2
(F98.8742817580387
F2.5942830811809925
F12.0
F3000.0
tp94
sg4
F46.854307020826674
sa(dp95
g2
(F52.00195360931603
F13.108607869435552
F8.0
F375.0
tp96
sg4
F0.0
sa(dp97
g2
(F74.8637531615988
F29.27299484882545
F14.0
F750.0
tp98
sg4
F5.888031599457201
sa(dp99
g2
(F97.95988490233009
F15.651925006106342
F6.0
F3000.0
tp100
sg4
F216.32448503924496
sa(dp101
g2
(F64.88566391979776
F11.709055271807884
F8.0
F375.0
tp102
sg4
F69.67327950485965
sa(dp103
g2
(F70.66338565076782
F9.932189001699143
F2.0
F3000.0
tp104
sg4
F215.83714510119069
sa(dp105
g2
(F91.39798470137258
F28.16419484339988
F12.0
F375.0
tp106
sg4
F75.9541443152418
sa(dp107
g2
(F77.25820885493363
F16.398354739216607
F4.0
F1500.0
tp108
sg4
F182.07487757469852
sa(dp109
g2
(F65.52861474109464
F49.92892705311716
F20.0
F750.0
tp110
sg4
F0.0
sa(dp111
g2
(F85.57698463323806
F3.2084904421395
F20.0
F3000.0
tp112
sg4
F51.57642419720008
sa(dp113
g2
(F50.51309984137824
F1.2230227467124266
F6.0
F3000.0
tp114
sg4
F339.58177170883664
sa(dp115
g2
(F88.23184002479533
F18.50188184379761
F5.0
F3000.0
tp116
sg4
F333.2442210306738
sa(dp117
g2
(F94.83727317589813
F25.756786430905553
F11.0
F750.0
tp118
sg4
F130.72831557625668
sa(dp119
g2
(F60.65208634043297
F41.550741518908225
F20.0
F375.0
tp120
sg4
F0.0
sa(dp121
g2
(F80.09830870978115
F42.911649295873985
F15.0
F3000.0
tp122
sg4
F0.0
sa(dp123
g2
(F94.06623819576114
F37.130373834907274
F4.0
F1500.0
tp124
sg4
F299.04591394375797
sa(dp125
g2
(F53.02035215413679
F34.57519259432007
F15.0
F3000.0
tp126
sg4
F0.0
sa(dp127
g2
(F83.44114158833483
F32.642246165635235
F20.0
F3000.0
tp128
sg4
F442.91013169296787
sa(dp129
g2
(F65.05506267574319
F0.2534203990627537
F15.0
F1500.0
tp130
sg4
F12.8470410753399
sa(dp131
g2
(F79.84965203427069
F5.479530714603281
F9.0
F1500.0
tp132
sg4
F75.17598966213171
sa(dp133
g2
(F91.26878435313307
F8.16215833599242
F4.0
F750.0
tp134
sg4
F10.348277767567481
sa(dp135
g2
(F86.99060048720328
F21.873019457844357
F1.0
F3000.0
tp136
sg4
F158.32899667986942
sa(dp137
g2
(F86.75656415753552
F38.09104786087751
F14.0
F3000.0
tp138
sg4
F509.7507537327759
sa(dp139
g2
(F66.59516162096979
F10.526019604133975
F3.0
F1500.0
tp140
sg4
F209.8162587274949
sa(dp141
g2
(F86.95317059044663
F14.62020615621697
F20.0
F750.0
tp142
sg4
F88.82668631558411
sa(dp143
g2
(F62.211004894320965
F43.1240733411993
F7.0
F375.0
tp144
sg4
F0.0
sa(dp145
g2
(F53.45284375173312
F10.625726203041358
F19.0
F1500.0
tp146
sg4
F0.0
sa(dp147
g2
(F96.69442935510733
F46.98739561643418
F8.0
F750.0
tp148
sg4
F242.29459554162588
sa(dp149
g2
(F92.7952327724928
F13.119970450204367
F15.0
F1500.0
tp150
sg4
F66.05789003338833
sa(dp151
g2
(F68.6836067561308
F24.209258512934895
F4.0
F375.0
tp152
sg4
F0.0
sa(dp153
g2
(F97.40915170597611
F17.938031175031067
F17.0
F3000.0
tp154
sg4
F400.72329165242064
sa(dp155
g2
(F64.11779033144558
F18.21555352807617
F20.0
F3000.0
tp156
sg4
F56.75993888955818
sa(dp157
g2
(F64.40063036194536
F11.15162807180336
F12.0
F750.0
tp158
sg4
F65.03560000499226
sa(dp159
g2
(F66.55697277161815
F6.60481525019393
F15.0
F750.0
tp160
sg4
F60.59244549718391
sa(dp161
g2
(F94.16518225344339
F38.57427348328998
F10.0
F1500.0
tp162
sg4
F314.18654167982186
sa(dp163
g2
(F76.72516484361739
F23.551259742425295
F1.0
F375.0
tp164
sg4
F35.61511785566789
sa(dp165
g2
(F70.59544925762845
F6.26570417611153
F1.0
F3000.0
tp166
sg4
F154.8413439749659
sa(dp167
g2
(F87.66444266655367
F20.790033828764
F15.0
F3000.0
tp168
sg4
F481.5652752448452
sa(dp169
g2
(F64.32276280978337
F26.487504532408902
F5.0
F375.0
tp170
sg4
F0.0
sa(dp171
g2
(F60.8750865626789
F16.311497102087998
F16.0
F1500.0
tp172
sg4
F0.0
sa(dp173
g2
(F72.44067361933718
F0.8782480841694418
F12.0
F750.0
tp174
sg4
F8.46420430643743
sa(dp175
g2
(F52.53765580438206
F23.267240534183365
F16.0
F1500.0
tp176
sg4
F0.0
sa(dp177
g2
(F51.22045285605731
F43.67162131605331
F4.0
F3000.0
tp178
sg4
F0.0
sa(dp179
g2
(F65.0363301522236
F19.815188572853266
F3.0
F3000.0
tp180
sg4
F26.75144008871175
sa(dp181
g2
(F79.53984673581857
F19.132911895261547
F2.0
F1500.0
tp182
sg4
F234.85322536392457
sa(dp183
g2
(F77.61631302643772
F15.30560617522118
F13.0
F750.0
tp184
sg4
F112.90447847607237
sa(dp185
g2
(F81.40926387359018
F10.661270160279223
F11.0
F3000.0
tp186
sg4
F246.160465586785
sa(dp187
g2
(F52.023285573130366
F7.653653273085981
F1.0
F1500.0
tp188
sg4
F0.0
sa(dp189
g2
(F82.62323645456243
F2.222243558420195
F13.0
F3000.0
tp190
sg4
F58.64490819668778
sa(dp191
g2
(F90.66510728833049
F24.361454858260657
F13.0
F1500.0
tp192
sg4
F274.2633916745164
sa(dp193
g2
(F98.72052158995065
F0.22441195348142373
F3.0
F3000.0
tp194
sg4
F25.278392316902835
sa(dp195
g2
(F59.757600952437535
F37.69539052704117
F20.0
F750.0
tp196
sg4
F0.0
sa(dp197
g2
(F58.720524457437904
F8.783734500335216
F1.0
F3000.0
tp198
sg4
F361.1335044204878
sa(dp199
g2
(F83.9847123339443
F12.255195790885304
F20.0
F375.0
tp200
sg4
F12.396286843954801
sa(dp201
g2
(F89.77140282872952
F29.306513099026265
F12.0
F375.0
tp202
sg4
F53.687481751165755
sa(dp203
g2
(F66.25309742716804
F41.66416894852474
F3.0
F750.0
tp204
sg4
F0.0
sa(dp205
g2
(F60.69372688597077
F31.14262139286569
F3.0
F1500.0
tp206
sg4
F0.0
sa(dp207
g2
(F98.9378915858523
F40.1318990726338
F14.0
F750.0
tp208
sg4
F196.93044370416942
sa(dp209
g2
(F83.10086000985342
F41.797133878115304
F4.0
F1500.0
tp210
sg4
F0.0
sa(dp211
g2
(F95.65835883387345
F17.48526783013319
F13.0
F1500.0
tp212
sg4
F197.29057772538303
sa(dp213
g2
(F84.80290793907801
F15.942847552449097
F20.0
F3000.0
tp214
sg4
F346.2667424151503
sa(dp215
g2
(F50.45382645333408
F29.888910604619433
F7.0
F1500.0
tp216
sg4
F0.0
sa(dp217
g2
(F70.12832563975377
F10.921417712260762
F2.0
F375.0
tp218
sg4
F17.534536693559506
sa(dp219
g2
(F50.73182767186696
F30.832530664598433
F7.0
F375.0
tp220
sg4
F0.0
sa(dp221
g2
(F99.13028739342856
F41.262796806217764
F14.0
F750.0
tp222
sg4
F128.51091506451675
sa(dp223
g2
(F79.53969184279738
F46.596239928177
F4.0
F1500.0
tp224
sg4
F0.0
sa(dp225
g2
(F84.77413910970238
F1.5353085316338833
F15.0
F1500.0
tp226
sg4
F6.357447898976509
sa(dp227
g2
(F62.051793580895755
F2.114416758901727
F10.0
F750.0
tp228
sg4
F11.383033684963102
sa(dp229
g2
(F57.297802391624835
F21.663694212999317
F19.0
F375.0
tp230
sg4
F0.0
sa(dp231
g2
(F94.46008257711227
F42.61668932191625
F2.0
F750.0
tp232
sg4
F222.26237595082563
sa(dp233
g2
(F86.94354612971836
F2.4795828602821257
F9.0
F1500.0
tp234
sg4
F17.093588481954832
sa(dp235
g2
(F67.46760837621224
F34.481159411254204
F20.0
F1500.0
tp236
sg4
F0.0
sa(dp237
g2
(F69.64615726164902
F41.63474677553969
F19.0
F375.0
tp238
sg4
F0.0
sa(dp239
g2
(F51.52455251309136
F28.699383345146845
F13.0
F1500.0
tp240
sg4
F0.0
sa(dp241
g2
(F66.0450386911673
F46.28841898023265
F20.0
F750.0
tp242
sg4
F0.0
sa(dp243
g2
(F81.16047107953501
F16.40824654634229
F12.0
F375.0
tp244
sg4
F59.81850971518012
sa(dp245
g2
(F58.65397841012578
F20.356462938071935
F7.0
F1500.0
tp246
sg4
F0.0
sa(dp247
g2
(F58.71805924564488
F3.0900947221954747
F10.0
F375.0
tp248
sg4
F10.554162332070373
sa(dp249
g2
(F54.25226576465369
F13.490269192643801
F15.0
F1500.0
tp250
sg4
F0.0
sa(dp251
g2
(F58.87806067886598
F33.2783173703117
F19.0
F3000.0
tp252
sg4
F0.0
sa(dp253
g2
(F55.416180471341846
F47.23134140774281
F18.0
F3000.0
tp254
sg4
F0.0
sa(dp255
g2
(F54.77125215019835
F39.38961433677283
F19.0
F1500.0
tp256
sg4
F0.0
sa(dp257
g2
(F86.59026738658461
F32.33260919460542
F12.0
F3000.0
tp258
sg4
F452.0279315754564
sa(dp259
g2
(F65.37652948568652
F6.534173675302885
F15.0
F3000.0
tp260
sg4
F114.81191396965741
sa(dp261
g2
(F57.21928235302886
F48.70037534251191
F14.0
F3000.0
tp262
sg4
F0.0
sa(dp263
g2
(F86.07743408780038
F28.68446386093829
F16.0
F3000.0
tp264
sg4
F696.3767517696667
sa(dp265
g2
(F66.93576602880174
F23.485804358312972
F14.0
F1500.0
tp266
sg4
F0.0
sa(dp267
g2
(F57.45985867276405
F8.060935742814602
F18.0
F3000.0
tp268
sg4
F228.08031979974962
sa(dp269
g2
(F58.18730068532169
F36.736119804664355
F5.0
F1500.0
tp270
sg4
F0.0
sa(dp271
g2
(F56.08474949849757
F24.34364037314129
F12.0
F375.0
tp272
sg4
F0.0
sa(dp273
g2
(F74.66096948810555
F1.297251265093602
F12.0
F3000.0
tp274
sg4
F34.65530247450194
sa(dp275
g2
(F95.82574657819436
F1.1266230839602487
F19.0
F3000.0
tp276
sg4
F29.325744649024863
sa(dp277
g2
(F60.50614238821585
F41.38623839356091
F12.0
F750.0
tp278
sg4
F0.0
sa(dp279
g2
(F77.51237947932113
F42.6752881452478
F15.0
F1500.0
tp280
sg4
F0.0
sa(dp281
g2
(F77.50764921984455
F34.27664190542263
F3.0
F375.0
tp282
sg4
F0.0
sa(dp283
g2
(F69.19627331807473
F28.238289568690778
F6.0
F3000.0
tp284
sg4
F0.0
sa(dp285
g2
(F97.566134007241
F30.292963031823174
F10.0
F3000.0
tp286
sg4
F232.58447430111616
sa(dp287
g2
(F81.4225008405953
F40.15283993517498
F15.0
F750.0
tp288
sg4
F0.0
sa(dp289
g2
(F95.92592945437556
F18.53776933410157
F5.0
F375.0
tp290
sg4
F28.631510403555648
sa(dp291
g2
(F97.09874418774221
F13.07728512224086
F3.0
F3000.0
tp292
sg4
F309.1050404514398
sa(dp293
g2
(F98.03303803756525
F3.4378875664159425
F17.0
F3000.0
tp294
sg4
F54.00202776145331
sa(dp295
g2
(F69.49343490967682
F46.42194053050707
F4.0
F1500.0
tp296
sg4
F0.0
sa(dp297
g2
(F50.46513077778706
F26.65333686905565
F18.0
F1500.0
tp298
sg4
F0.0
sa(dp299
g2
(F77.33864463394602
F34.34352930529286
F11.0
F375.0
tp300
sg4
F0.0
sa(dp301
g2
(F91.99273258529897
F17.719296426873292
F10.0
F375.0
tp302
sg4
F23.956208289210302
sa(dp303
g2
(F55.72246792284244
F41.203287890638194
F12.0
F3000.0
tp304
sg4
F0.0
sa(dp305
g2
(F81.2549676564176
F7.148951966658846
F7.0
F3000.0
tp306
sg4
F122.93147962711947
sa(dp307
g2
(F88.5751188598758
F19.721023769934042
F2.0
F3000.0
tp308
sg4
F363.6276849978501
sa(dp309
g2
(F67.34684951979698
F12.124337024372167
F13.0
F1500.0
tp310
sg4
F202.65330270843057
sa(dp311
g2
(F99.74788626837667
F45.69142760889401
F13.0
F375.0
tp312
sg4
F102.68794146808337
sa(dp313
g2
(F81.80308016149
F28.972496179527486
F8.0
F3000.0
tp314
sg4
F213.52994218464616
sa(dp315
g2
(F84.29991248193372
F32.85867903494883
F2.0
F1500.0
tp316
sg4
F413.0441284950754
sa(dp317
g2
(F59.415545492215
F48.60745662961723
F1.0
F1500.0
tp318
sg4
F0.0
sa(dp319
g2
(F88.05443226840339
F39.204822770640355
F13.0
F750.0
tp320
sg4
F85.79899833093002
sa(dp321
g2
(F77.66874750757944
F47.71926083160376
F6.0
F3000.0
tp322
sg4
F0.0
sa(dp323
g2
(F79.16862270465433
F25.82238014563851
F4.0
F750.0
tp324
sg4
F38.25256224412924
sa(dp325
g2
(F72.34021924878503
F31.08021724734728
F15.0
F750.0
tp326
sg4
F0.0
sa(dp327
g2
(F69.22529058271158
F36.22594052643941
F8.0
F375.0
tp328
sg4
F0.0
sa(dp329
g2
(F88.5228457543264
F24.21859281793988
F18.0
F1500.0
tp330
sg4
F177.3218803241929
sa(dp331
g2
(F53.19480739134815
F38.196224376923475
F2.0
F375.0
tp332
sg4
F0.0
sa(dp333
g2
(F58.33635968484918
F38.337749335779925
F6.0
F750.0
tp334
sg4
F0.0
sa(dp335
g2
(F53.931965231496
F10.247677023144435
F10.0
F375.0
tp336
sg4
F0.0
sa(dp337
g2
(F74.97878068899377
F39.551662619567075
F7.0
F1500.0
tp338
sg4
F0.0
sa(dp339
g2
(F85.9700791308752
F26.648570785024344
F2.0
F1500.0
tp340
sg4
F215.50317279930306
sa(dp341
g2
(F75.2844086034977
F40.44175754978496
F17.0
F750.0
tp342
sg4
F0.0
sa(dp343
g2
(F52.568601791785156
F30.26671956459428
F2.0
F750.0
tp344
sg4
F0.0
sa(dp345
g2
(F98.89889393557598
F0.8386897951063177
F18.0
F3000.0
tp346
sg4
F11.638558314653805
sa(dp347
g2
(F98.78276241620114
F41.69402235393721
F2.0
F375.0
tp348
sg4
F89.3861518169964
sa(dp349
g2
(F99.47509313445151
F30.523211126677175
F16.0
F1500.0
tp350
sg4
F95.60120548877315
sa(dp351
g2
(F93.85470818259326
F42.936719691379615
F11.0
F375.0
tp352
sg4
F54.039990231492226
sa(dp353
g2
(F90.67092885501981
F41.213156337927245
F17.0
F1500.0
tp354
sg4
F89.46421839603396
sa(dp355
g2
(F89.7938681816274
F1.1686750460634
F8.0
F375.0
tp356
sg4
F1.4401966969776219
sa(dp357
g2
(F94.95773882243043
F30.26750427825668
F15.0
F3000.0
tp358
sg4
F520.3078784262382
sa(dp359
g2
(F82.42937038295106
F37.67348147910404
F13.0
F375.0
tp360
sg4
F0.0
sa(dp361
g2
(F68.44118164704909
F23.993652506563677
F14.0
F3000.0
tp362
sg4
F0.0
sa(dp363
g2
(F51.595465606770645
F47.64709515880017
F20.0
F750.0
tp364
sg4
F0.0
sa(dp365
g2
(F74.30592586071872
F11.070478003382517
F3.0
F375.0
tp366
sg4
F20.647309434034703
sa(dp367
g2
(F65.87894884564346
F4.62566992354917
F8.0
F1500.0
tp368
sg4
F40.15932919555405
sa(dp369
g2
(F55.34514398233698
F8.079825384056495
F2.0
F375.0
tp370
sg4
F17.14637625417249
sa(dp371
g2
(F72.06980217066686
F19.110366876708422
F17.0
F750.0
tp372
sg4
F88.60276035935999
sa(dp373
g2
(F61.67413622916005
F37.442696825858555
F19.0
F750.0
tp374
sg4
F0.0
sa(dp375
g2
(F80.00996243035098
F3.8758524384362003
F7.0
F750.0
tp376
sg4
F24.72083388848943
sa(dp377
g2
(F90.69638392552659
F20.094891963249754
F4.0
F3000.0
tp378
sg4
F470.034271866075
sa(dp379
g2
(F94.8878263871601
F17.363141543665822
F11.0
F375.0
tp380
sg4
F50.321142312814665
sa(dp381
g2
(F54.87627187826035
F20.765217296593903
F5.0
F375.0
tp382
sg4
F0.0
sa(dp383
g2
(F90.64264471042655
F46.870254717536525
F7.0
F1500.0
tp384
sg4
F0.0
sa(dp385
g2
(F91.75365460051063
F31.04114307535653
F5.0
F3000.0
tp386
sg4
F747.7127934217357
sa(dp387
g2
(F80.95893675954034
F10.954171060576734
F10.0
F1500.0
tp388
sg4
F126.86036780880724
sa(dp389
g2
(F67.90585997984104
F5.065868580998184
F5.0
F750.0
tp390
sg4
F33.68974171794954
sa(dp391
g2
(F58.97270333849306
F43.67080978186168
F5.0
F3000.0
tp392
sg4
F0.0
sa(dp393
g2
(F86.9913972647606
F32.787126946493665
F20.0
F1500.0
tp394
sg4
F185.24616485795903
sa(dp395
g2
(F97.32100986610723
F4.188670693518448
F13.0
F3000.0
tp396
sg4
F94.6753853030351
sa(dp397
g2
(F96.88596926061653
F36.72816265408795
F5.0
F375.0
tp398
sg4
F105.86991066367818
sa(dp399
g2
(F79.64850821457168
F40.923423981498956
F11.0
F1500.0
tp400
sg4
F0.0
sa(dp401
g2
(F90.8146146468562
F34.391799399471026
F8.0
F750.0
tp402
sg4
F139.80449802986084
sa(dp403
g2
(F50.49319148909635
F40.61021633963145
F6.0
F3000.0
tp404
sg4
F0.0
sa(dp405
g2
(F86.29676433407931
F0.6475174854783661
F8.0
F375.0
tp406
sg4
F2.345938652950123
sa(dp407
g2
(F88.95964545431205
F28.682119087275233
F18.0
F750.0
tp408
sg4
F110.85660871414461
sa(dp409
g2
(F73.380464736607
F34.4399473414038
F15.0
F1500.0
tp410
sg4
F0.0
sa(dp411
g2
(F89.24411620254865
F13.009574443562633
F13.0
F1500.0
tp412
sg4
F50.070331616439816
sa(dp413
g2
(F66.96004197832458
F43.249733445800175
F12.0
F375.0
tp414
sg4
F0.0
sa(dp415
g2
(F79.63675020340783
F14.749275926081019
F5.0
F3000.0
tp416
sg4
F409.6463932292378
sa(dp417
g2
(F85.50644769717903
F13.093503617776475
F3.0
F375.0
tp418
sg4
F28.04626654575551
sa(dp419
g2
(F62.5994855348952
F25.323280961032037
F12.0
F3000.0
tp420
sg4
F0.0
sa(dp421
g2
(F88.55496427647907
F26.855629242757097
F7.0
F750.0
tp422
sg4
F103.93924653662877
sa(dp423
g2
(F53.69602826036021
F34.95781534517689
F10.0
F375.0
tp424
sg4
F0.0
sa(dp425
g2
(F53.872427541946635
F22.8339527129366
F1.0
F375.0
tp426
sg4
F0.0
sa(dp427
g2
(F89.47065634797102
F5.246780118219574
F17.0
F3000.0
tp428
sg4
F132.40862359636037
sa(dp429
g2
(F63.86071410297929
F39.0682983589588
F16.0
F1500.0
tp430
sg4
F0.0
sa(dp431
g2
(F56.72217532101646
F9.73102155236144
F18.0
F1500.0
tp432
sg4
F120.40689741569645
sa(dp433
g2
(F54.27805103650665
F44.90211086223623
F5.0
F750.0
tp434
sg4
F0.0
sa(dp435
g2
(F66.05957299551491
F31.167698982509158
F17.0
F1500.0
tp436
sg4
F0.0
sa(dp437
g2
(F95.84394199569867
F12.054131431175886
F13.0
F1500.0
tp438
sg4
F128.81776926847817
sa(dp439
g2
(F72.99299738066448
F29.615466373965976
F8.0
F375.0
tp440
sg4
F0.0
sa(dp441
g2
(F52.84945476613734
F37.30024090774353
F4.0
F375.0
tp442
sg4
F0.0
sa(dp443
g2
(F87.06447187384467
F27.0192825899115
F18.0
F3000.0
tp444
sg4
F368.48651698911516
sa(dp445
g2
(F58.49448910678573
F12.119808080417544
F14.0
F375.0
tp446
sg4
F10.581069820724831
sa(dp447
g2
(F64.6163424680752
F34.512387032066385
F13.0
F3000.0
tp448
sg4
F0.0
sa(dp449
g2
(F92.3802946939204
F27.36437294115693
F4.0
F1500.0
tp450
sg4
F291.02926774433865
sa(dp451
g2
(F85.3222870720378
F25.445772103444003
F5.0
F3000.0
tp452
sg4
F439.1615764725662
sa(dp453
g2
(F76.01690800712443
F31.043975530758576
F6.0
F375.0
tp454
sg4
F0.0
sa(dp455
g2
(F70.04292624414259
F9.153517677292006
F9.0
F750.0
tp456
sg4
F94.83560968474889
sa(dp457
g2
(F60.47668799365267
F19.995011633827104
F2.0
F1500.0
tp458
sg4
F0.0
sa(dp459
g2
(F52.8941526418943
F19.736506018215298
F1.0
F1500.0
tp460
sg4
F0.0
sa(dp461
g2
(F73.35217084418588
F30.747407946838063
F17.0
F375.0
tp462
sg4
F0.0
sa(dp463
g2
(F85.67549881363925
F49.75742155828689
F15.0
F375.0
tp464
sg4
F0.0
sa(dp465
g2
(F97.45222768029903
F48.79186254450338
F18.0
F375.0
tp466
sg4
F82.14575902213957
sa(dp467
g2
(F56.13726517040642
F3.5965068389482546
F12.0
F1500.0
tp468
sg4
F113.11046871094338
sa(dp469
g2
(F66.38365466566353
F17.441947546626025
F20.0
F375.0
tp470
sg4
F17.125574222878
sa(dp471
g2
(F94.12400452181927
F7.362682908205597
F2.0
F750.0
tp472
sg4
F26.027566495727193
sa(dp473
g2
(F85.55628875676368
F20.342792004104233
F4.0
F3000.0
tp474
sg4
F550.2987417020993
sa(dp475
g2
(F93.3195066563481
F16.279603018669107
F2.0
F1500.0
tp476
sg4
F140.68877983269053
sa(dp477
g2
(F79.48155882309965
F26.48948112321935
F12.0
F3000.0
tp478
sg4
F577.4957098226929
sa(dp479
g2
(F60.228477313820974
F47.36149795053945
F12.0
F3000.0
tp480
sg4
F0.0
sa(dp481
g2
(F86.19053388257024
F31.790287269327898
F6.0
F1500.0
tp482
sg4
F109.00390812752228
sa(dp483
g2
(F98.53255759996463
F29.373891018427695
F19.0
F750.0
tp484
sg4
F38.525404518868505
sa(dp485
g2
(F78.93382883334988
F0.6879226224790702
F11.0
F1500.0
tp486
sg4
F16.015458741547665
sa(dp487
g2
(F64.50982447385647
F9.540405368129413
F5.0
F3000.0
tp488
sg4
F488.9863307572347
sa(dp489
g2
(F67.78440010685337
F15.49194117016765
F2.0
F375.0
tp490
sg4
F63.20414263782388
sa(dp491
g2
(F61.70143565502036
F40.908483867869634
F17.0
F3000.0
tp492
sg4
F0.0
sa(dp493
g2
(F56.388308649780434
F5.649785433617471
F8.0
F3000.0
tp494
sg4
F202.3050060117091
sa(dp495
g2
(F94.42836708752947
F5.848850247173481
F3.0
F3000.0
tp496
sg4
F65.59742165533297
sa(dp497
g2
(F80.52940287170134
F31.626800864801645
F8.0
F375.0
tp498
sg4
F57.73546788301627
sa(dp499
g2
(F64.43578569426388
F31.933431328148632
F11.0
F750.0
tp500
sg4
F0.0
sa(dp501
g2
(F77.43121233458821
F15.317857005082057
F3.0
F3000.0
tp502
sg4
F98.20591011972424
sa(dp503
g2
(F55.54292429312541
F41.88479037781367
F3.0
F750.0
tp504
sg4
F0.0
sa(dp505
g2
(F87.54327922980842
F14.598485058252214
F10.0
F750.0
tp506
sg4
F49.1699419767076
sa(dp507
g2
(F71.22160590918338
F8.541114646618603
F13.0
F375.0
tp508
sg4
F23.469882713548763
sa(dp509
g2
(F72.27789842647445
F26.100646993231795
F14.0
F1500.0
tp510
sg4
F65.8294338152323
sa(dp511
g2
(F83.72917070015485
F47.7550000276611
F2.0
F1500.0
tp512
sg4
F0.0
sa(dp513
g2
(F65.11093021940746
F25.103248640072746
F18.0
F375.0
tp514
sg4
F0.0
sa(dp515
g2
(F69.10502923022204
F3.9969717051661746
F1.0
F3000.0
tp516
sg4
F140.55327738682803
sa(dp517
g2
(F99.48236863314114
F42.46178584533015
F5.0
F750.0
tp518
sg4
F227.44892353280756
sa(dp519
g2
(F61.00749391750411
F17.745956389857675
F8.0
F1500.0
tp520
sg4
F0.0
sa(dp521
g2
(F97.48664287094785
F29.108896730744465
F19.0
F750.0
tp522
sg4
F152.6050458921178
sa(dp523
g2
(F52.88425891836944
F30.177018809138502
F1.0
F750.0
tp524
sg4
F0.0
sa(dp525
g2
(F73.69602932031262
F13.534909450453863
F20.0
F3000.0
tp526
sg4
F330.14195810819126
sa(dp527
g2
(F72.92799921541868
F17.146639813943743
F6.0
F1500.0
tp528
sg4
F227.66401187299235
sa(dp529
g2
(F57.68083675991082
F16.67974981272125
F7.0
F375.0
tp530
sg4
F0.0
sa(dp531
g2
(F96.15566505659538
F25.06110607600721
F8.0
F3000.0
tp532
sg4
F348.53283005698535
sa(dp533
g2
(F91.64113760692993
F45.4199064637017
F5.0
F375.0
tp534
sg4
F27.47587794523211
sa(dp535
g2
(F79.0079023557208
F8.649213119395437
F15.0
F1500.0
tp536
sg4
F78.07324252911441
sa(dp537
g2
(F59.35895267517293
F30.07479965586244
F8.0
F1500.0
tp538
sg4
F0.0
sa(dp539
g2
(F74.80346146210087
F30.301900200106935
F3.0
F375.0
tp540
sg4
F0.0
sa(dp541
g2
(F53.15888854293816
F9.346390146919264
F4.0
F375.0
tp542
sg4
F0.0
sa(dp543
g2
(F58.22675820501077
F6.297211744494069
F2.0
F3000.0
tp544
sg4
F239.1107354112116
sa(dp545
g2
(F65.0911131765989
F2.502508434246964
F2.0
F1500.0
tp546
sg4
F22.892781403452428
sa(dp547
g2
(F83.39841519609865
F21.683843185727707
F1.0
F1500.0
tp548
sg4
F109.27227224285423
sa(dp549
g2
(F90.04113839581123
F0.32156826358767376
F2.0
F1500.0
tp550
sg4
F6.4277297770711055
sa(dp551
g2
(F70.67481943183405
F46.64534059425121
F12.0
F3000.0
tp552
sg4
F0.0
sa(dp553
g2
(F78.08921973575879
F25.965776228076663
F11.0
F750.0
tp554
sg4
F110.55439139403722
sa(dp555
g2
(F85.84742880172956
F29.30107481471007
F1.0
F3000.0
tp556
sg4
F707.5400897327213
sa(dp557
g2
(F51.225129041530586
F7.384454032449478
F9.0
F1500.0
tp558
sg4
F0.0
sa(dp559
g2
(F91.76365238645502
F31.301983912298343
F17.0
F375.0
tp560
sg4
F95.51024393626298
sa(dp561
g2
(F88.20095947427745
F13.858647188615736
F16.0
F3000.0
tp562
sg4
F209.5394748004698
sa(dp563
g2
(F85.39652374029654
F12.307769359210324
F7.0
F750.0
tp564
sg4
F18.02490521120573
sa(dp565
g2
(F86.97222346339235
F26.593251550720748
F17.0
F1500.0
tp566
sg4
F287.4760759597021
sa(dp567
g2
(F68.62017709634904
F23.137190127528978
F19.0
F375.0
tp568
sg4
F3.5078206391208266
sa(dp569
g2
(F88.35397442416087
F4.440524211891272
F19.0
F3000.0
tp570
sg4
F63.676258721837286
sa(dp571
g2
(F79.18576379488259
F7.339832134584218
F7.0
F1500.0
tp572
sg4
F51.645030226623724
sa(dp573
g2
(F58.41066678790317
F34.03252852432757
F16.0
F750.0
tp574
sg4
F0.0
sa(dp575
g2
(F59.04656918540199
F41.373713561931595
F1.0
F375.0
tp576
sg4
F0.0
sa(dp577
g2
(F89.78559006305741
F39.246074339743
F16.0
F3000.0
tp578
sg4
F606.4646673751179
sa(dp579
g2
(F56.86467338893254
F34.42789298878511
F11.0
F1500.0
tp580
sg4
F0.0
sa(dp581
g2
(F69.22082934990672
F22.39254670025797
F6.0
F3000.0
tp582
sg4
F190.64841395288144
sa(dp583
g2
(F74.58982529899794
F23.51267896930322
F7.0
F750.0
tp584
sg4
F119.58423546032283
sa(dp585
g2
(F73.09310798673258
F16.02244430626315
F18.0
F375.0
tp586
sg4
F18.934039365807273
sa(dp587
g2
(F55.31410325605508
F17.155482970796697
F20.0
F375.0
tp588
sg4
F0.0
sa(dp589
g2
(F80.57795010817387
F25.243485667665784
F7.0
F750.0
tp590
sg4
F106.4515581027134
sa(dp591
g2
(F85.95498273937295
F47.592409989297394
F11.0
F750.0
tp592
sg4
F0.0
sa(dp593
g2
(F91.9159149370904
F5.25855647307027
F9.0
F750.0
tp594
sg4
F14.173323230364515
sa(dp595
g2
(F58.077777175883476
F48.17214271964493
F5.0
F750.0
tp596
sg4
F0.0
sa(dp597
g2
(F99.77990414915463
F23.899670339063583
F14.0
F375.0
tp598
sg4
F28.209556657012218
sa(dp599
g2
(F96.42716746658768
F6.517689460499238
F2.0
F1500.0
tp600
sg4
F27.524717402040608
sa(dp601
g2
(F57.46315111011591
F10.87271385692854
F7.0
F375.0
tp602
sg4
F19.334564249602774
sa.