(lp0
(dp1
S'input'
p2
(F53.4709257789562
F9.679058253924937
tp3
sS'output'
p4
F0.0
sa(dp5
g2
(F55.48281488385496
F8.469389269219402
tp6
sg4
F52.357106605974145
sa(dp7
g2
(F52.53934718200605
F7.734684593186309
tp8
sg4
F0.0
sa(dp9
g2
(F66.25392306769794
F29.506106598524923
tp10
sg4
F0.0
sa(dp11
g2
(F93.14376221823233
F38.54881302825987
tp12
sg4
F179.34124990938415
sa(dp13
g2
(F65.95667123644299
F47.43563381733814
tp14
sg4
F0.0
sa(dp15
g2
(F83.35496280112282
F36.845066251060885
tp16
sg4
F53.9391945530053
sa(dp17
g2
(F59.781855979881854
F28.639235183501903
tp18
sg4
F0.0
sa(dp19
g2
(F92.07993032779078
F23.449414133337903
tp20
sg4
F135.22552088741946
sa(dp21
g2
(F65.80324272220528
F38.13455776308272
tp22
sg4
F0.0
sa(dp23
g2
(F53.62177148673865
F33.138966053609764
tp24
sg4
F0.0
sa(dp25
g2
(F63.22114695161196
F49.18467486842353
tp26
sg4
F0.0
sa(dp27
g2
(F95.08708105484789
F6.364112658189458
tp28
sg4
F40.674863220626506
sa(dp29
g2
(F82.47876243268901
F45.61912523215386
tp30
sg4
F0.0
sa(dp31
g2
(F86.67555735411662
F20.74750919311989
tp32
sg4
F117.17263927108502
sa(dp33
g2
(F83.39162972023612
F3.866659883753859
tp34
sg4
F29.728997829788437
sa(dp35
g2
(F90.12953883488686
F2.191627310964017
tp36
sg4
F18.733478601432637
sa(dp37
g2
(F78.39613293937515
F24.43175739746003
tp38
sg4
F205.62825511482023
sa(dp39
g2
(F65.02134725990341
F23.718757262600544
tp40
sg4
F0.0
sa(dp41
g2
(F69.10755187835238
F6.178964421190836
tp42
sg4
F70.38269792033074
sa(dp43
g2
(F53.35629056986036
F9.99952594707576
tp44
sg4
F0.0
sa(dp45
g2
(F64.76421133162384
F46.25608329227913
tp46
sg4
F0.0
sa(dp47
g2
(F85.2448489980313
F48.28628168579204
tp48
sg4
F0.0
sa(dp49
g2
(F97.21038297305088
F1.621359488223889
tp50
sg4
F15.025361175458169
sa(dp51
g2
(F85.5804618218435
F16.962526430941992
tp52
sg4
F91.95868847833695
sa(dp53
g2
(F94.56293944935474
F10.46681716629414
tp54
sg4
F69.89972492099247
sa(dp55
g2
(F50.10169871332
F17.79017679978283
tp56
sg4
F0.0
sa(dp57
g2
(F69.60735489712063
F7.896893308279729
tp58
sg4
F79.6743827432455
sa(dp59
g2
(F69.9045714187719
F12.441940524837841
tp60
sg4
F117.15415950765575
sa(dp61
g2
(F74.42223235131871
F49.50706641950377
tp62
sg4
F0.0
sa(dp63
g2
(F83.93470050125386
F43.4514927003274
tp64
sg4
F0.0
sa(dp65
g2
(F87.07251976065322
F15.57015503147689
tp66
sg4
F80.88147702034264
sa(dp67
g2
(F77.43334555010122
F40.144945013726215
tp68
sg4
F0.0
sa(dp69
g2
(F82.13188204397935
F18.418916854247914
tp70
sg4
F132.6257986619963
sa(dp71
g2
(F54.68564747254031
F31.150542202026067
tp72
sg4
F0.0
sa(dp73
g2
(F52.61055734105916
F25.396233005978047
tp74
sg4
F0.0
sa(dp75
g2
(F80.2937656899754
F9.210310041474695
tp76
sg4
F65.01015181159619
sa(dp77
g2
(F54.63484713259696
F41.7235824115194
tp78
sg4
F0.0
sa(dp79
g2
(F62.00237831298779
F22.37797098095588
tp80
sg4
F0.0
sa(dp81
g2
(F79.27537282019118
F46.09674527972756
tp82
sg4
F0.0
sa(dp83
g2
(F93.08496122963389
F48.03742596827002
tp84
sg4
F2.3732044209333716
sa(dp85
g2
(F59.95481427331213
F43.983268155409306
tp86
sg4
F0.0
sa(dp87
g2
(F67.90151605493297
F33.248899929493376
tp88
sg4
F0.0
sa(dp89
g2
(F80.92307875760146
F29.941309177102994
tp90
sg4
F226.39091330063647
sa(dp91
g2
(F83.32204523776223
F10.018761242537334
tp92
sg4
F70.77658900752894
sa(dp93
g2
(F59.6696476379041
F24.904994623500524
tp94
sg4
F0.0
sa(dp95
g2
(F80.00825081237873
F0.1439215871957389
tp96
sg4
F6.4156075486292385
sa(dp97
g2
(F68.27401204050135
F44.48534750431101
tp98
sg4
F0.0
sa(dp99
g2
(F94.84061585269777
F30.25554335508488
tp100
sg4
F158.9093951148482
sa(dp101
g2
(F60.09108808520821
F3.992634682744911
tp102
sg4
F88.3226470095969
sa(dp103
g2
(F92.40965318670024
F34.29115431451344
tp104
sg4
F204.55128329214222
sa(dp105
g2
(F75.31642660032014
F29.401553290657528
tp106
sg4
F27.64567051152245
sa(dp107
g2
(F85.05636042262671
F46.523602632558045
tp108
sg4
F0.0
sa(dp109
g2
(F56.211389048864035
F9.412156274056771
tp110
sg4
F47.13344512303678
sa(dp111
g2
(F72.74420491068352
F15.949116736632817
tp112
sg4
F138.77291413147444
sa(dp113
g2
(F64.27595610443754
F18.31095928385268
tp114
sg4
F25.647653321687095
sa(dp115
g2
(F52.35242993176085
F5.6040953510210105
tp116
sg4
F45.19378763405097
sa(dp117
g2
(F60.27481721891863
F26.435875771308815
tp118
sg4
F0.0
sa(dp119
g2
(F99.1796292911564
F27.865691055102698
tp120
sg4
F127.97464757144589
sa(dp121
g2
(F54.70696703790224
F14.72103257363488
tp122
sg4
F0.0
sa(dp123
g2
(F53.19997295525046
F0.8276076657014242
tp124
sg4
F88.93440911988213
sa(dp125
g2
(F94.14177045999614
F48.51460717640181
tp126
sg4
F25.153706345637936
sa(dp127
g2
(F95.01006849827175
F17.77373357424676
tp128
sg4
F84.54606781539712
sa(dp129
g2
(F76.21024360190013
F21.457718104089086
tp130
sg4
F145.77979348973412
sa(dp131
g2
(F64.78645405453437
F44.493727036235576
tp132
sg4
F0.0
sa(dp133
g2
(F54.89003127880186
F40.01532256747014
tp134
sg4
F0.0
sa(dp135
g2
(F75.35878282499513
F33.561690667756054
tp136
sg4
F0.0
sa(dp137
g2
(F50.86464623871846
F23.163190360312612
tp138
sg4
F0.0
sa(dp139
g2
(F82.66647374256979
F6.886875851473357
tp140
sg4
F43.25133859302036
sa(dp141
g2
(F86.09546664770987
F13.277683943494246
tp142
sg4
F83.46798839848262
sa(dp143
g2
(F93.69206105799546
F39.30100632683389
tp144
sg4
F258.0137497533533
sa(dp145
g2
(F91.21330617842636
F9.825576194730607
tp146
sg4
F68.75360172941997
sa(dp147
g2
(F61.25547222106461
F4.139847979177541
tp148
sg4
F83.2358384159618
sa(dp149
g2
(F50.43704684638408
F15.7684687509545
tp150
sg4
F0.0
sa(dp151
g2
(F84.8140301003533
F30.968726021431962
tp152
sg4
F172.76546535471587
sa(dp153
g2
(F50.27234318829322
F18.024804179214165
tp154
sg4
F0.0
sa(dp155
g2
(F59.593043936129895
F24.60276431568012
tp156
sg4
F0.0
sa(dp157
g2
(F50.52937451244139
F11.819070431905542
tp158
sg4
F0.0
sa(dp159
g2
(F70.70716389769458
F37.309006743100866
tp160
sg4
F0.0
sa(dp161
g2
(F52.56941645928616
F13.534686175398319
tp162
sg4
F0.0
sa(dp163
g2
(F80.51445136089112
F6.953169080273308
tp164
sg4
F60.17115564594973
sa(dp165
g2
(F68.64615228959644
F13.465540791227227
tp166
sg4
F157.87768822934913
sa(dp167
g2
(F76.5145114765238
F25.97687152166718
tp168
sg4
F182.63386308257327
sa(dp169
g2
(F51.15290070569537
F19.83143924350043
tp170
sg4
F0.0
sa(dp171
g2
(F70.21925083112077
F24.761506664001733
tp172
sg4
F15.049980354105987
sa(dp173
g2
(F74.7781283551187
F12.127426301176653
tp174
sg4
F109.50203413731774
sa(dp175
g2
(F81.44484920485466
F35.53782859830078
tp176
sg4
F36.56775113292786
sa(dp177
g2
(F78.91543556681107
F13.637162869035574
tp178
sg4
F92.59939589106335
sa(dp179
g2
(F54.454707008235225
F39.916252341603084
tp180
sg4
F0.0
sa(dp181
g2
(F75.59363694699817
F21.208502994811674
tp182
sg4
F149.85249211804026
sa(dp183
g2
(F58.48828132210765
F8.660116086705012
tp184
sg4
F137.77364488690242
sa(dp185
g2
(F78.13755848419757
F12.776688966136774
tp186
sg4
F90.60719690759714
sa(dp187
g2
(F81.74880314904841
F3.0761415792680715
tp188
sg4
F22.589495985469767
sa(dp189
g2
(F50.98768694284273
F46.257543446677914
tp190
sg4
F0.0
sa(dp191
g2
(F87.9323140179238
F32.66151831321745
tp192
sg4
F179.1991443815645
sa(dp193
g2
(F75.16478115076868
F19.761916852399104
tp194
sg4
F126.78692046191566
sa(dp195
g2
(F81.40087177848125
F10.955459308325445
tp196
sg4
F80.02642579291816
sa(dp197
g2
(F58.013510264258144
F7.386502734783412
tp198
sg4
F148.8005469540684
sa(dp199
g2
(F54.27129427844076
F17.882893392777177
tp200
sg4
F0.0
sa(dp201
g2
(F72.07053205414489
F5.608675095741389
tp202
sg4
F60.19486078174584
sa(dp203
g2
(F97.88694321047134
F7.398560204486743
tp204
sg4
F35.22705370134038
sa(dp205
g2
(F92.35205487423336
F9.065431413036812
tp206
sg4
F56.097796830459785
sa(dp207
g2
(F90.90969063454924
F24.833140591624897
tp208
sg4
F158.75788648599496
sa(dp209
g2
(F55.30936103726565
F31.00679866086808
tp210
sg4
F0.0
sa(dp211
g2
(F75.7451722834441
F11.408852225642995
tp212
sg4
F93.11597576452216
sa(dp213
g2
(F55.91741627314611
F26.511957442403173
tp214
sg4
F0.0
sa(dp215
g2
(F74.03191183547689
F18.459615711230793
tp216
sg4
F126.06663232763755
sa(dp217
g2
(F92.64124306395593
F35.20389796545144
tp218
sg4
F233.58332076283298
sa(dp219
g2
(F59.28695174646456
F1.3646444461163143
tp220
sg4
F31.91981526377435
sa(dp221
g2
(F96.86248981706576
F39.33922756383146
tp222
sg4
F217.15802897447364
sa(dp223
g2
(F50.91903729948329
F25.87410821397875
tp224
sg4
F0.0
sa(dp225
g2
(F67.6484941830962
F23.794579021544603
tp226
sg4
F0.0
sa(dp227
g2
(F75.37900166104126
F11.678492341013847
tp228
sg4
F84.11503415759184
sa(dp229
g2
(F99.79374843715983
F36.01204134216546
tp230
sg4
F150.78853971565124
sa(dp231
g2
(F70.20916825189857
F26.8111219428068
tp232
sg4
F0.0
sa(dp233
g2
(F62.860266263408846
F0.021032078889099415
tp234
sg4
F13.218826860731337
sa(dp235
g2
(F66.1388961861865
F4.078112937619915
tp236
sg4
F48.41007086241589
sa(dp237
g2
(F99.10458237452636
F2.5550567313712635
tp238
sg4
F16.08737663638194
sa(dp239
g2
(F74.74298874264183
F24.509765938999493
tp240
sg4
F184.60911195541718
sa(dp241
g2
(F96.29389466625656
F10.116505435567175
tp242
sg4
F66.1065385135211
sa(dp243
g2
(F93.71381824973449
F12.205623075362803
tp244
sg4
F65.21227916266302
sa(dp245
g2
(F78.09900235131873
F47.41103034125214
tp246
sg4
F0.0
sa(dp247
g2
(F59.03864554365897
F44.89887574942286
tp248
sg4
F0.0
sa(dp249
g2
(F57.273373508533645
F46.197757255651744
tp250
sg4
F0.0
sa(dp251
g2
(F64.36143687095456
F13.873412513700512
tp252
sg4
F152.4590718820698
sa(dp253
g2
(F96.5354446864544
F35.35913803277087
tp254
sg4
F198.08636306794986
sa(dp255
g2
(F66.6883843375959
F24.758590329821118
tp256
sg4
F0.0
sa(dp257
g2
(F89.67478649247828
F37.58830719136837
tp258
sg4
F243.68930632334545
sa(dp259
g2
(F85.04815355134004
F44.19481228045746
tp260
sg4
F0.0
sa(dp261
g2
(F97.28661797156624
F15.448964415318661
tp262
sg4
F83.60769719045621
sa(dp263
g2
(F64.85473895959272
F5.88075242958907
tp264
sg4
F61.213769230412545
sa(dp265
g2
(F55.34708924496021
F49.80160574002868
tp266
sg4
F0.0
sa(dp267
g2
(F88.98781931662546
F19.22624730897463
tp268
sg4
F123.46297758152926
sa(dp269
g2
(F56.154617699292565
F1.9453489473835184
tp270
sg4
F66.06294334518223
sa(dp271
g2
(F75.83855074780043
F42.02347707141107
tp272
sg4
F0.0
sa(dp273
g2
(F94.90689797305282
F35.80721514049902
tp274
sg4
F183.62754940620533
sa(dp275
g2
(F71.17158825628626
F22.493724909072476
tp276
sg4
F108.22768559221979
sa(dp277
g2
(F55.51310477833904
F29.149410083593487
tp278
sg4
F0.0
sa(dp279
g2
(F80.39828531859884
F40.01521947965903
tp280
sg4
F0.0
sa(dp281
g2
(F61.91205500566137
F12.61971493952973
tp282
sg4
F154.46451640548986
sa(dp283
g2
(F94.54675121961444
F4.078247533400531
tp284
sg4
F23.50702175508852
sa(dp285
g2
(F54.745350988213744
F44.53706134332411
tp286
sg4
F0.0
sa(dp287
g2
(F96.91732268732922
F23.506834746453713
tp288
sg4
F106.41223023030541
sa(dp289
g2
(F53.13904708386831
F30.400861811772845
tp290
sg4
F0.0
sa(dp291
g2
(F67.77908579284403
F38.36318245545935
tp292
sg4
F0.0
sa(dp293
g2
(F85.44475456492964
F1.1258329970733172
tp294
sg4
F11.882881663117137
sa(dp295
g2
(F59.63924289510394
F16.120204850393744
tp296
sg4
F0.0
sa(dp297
g2
(F70.0562898490254
F0.3421973100035669
tp298
sg4
F10.138154999442222
sa(dp299
g2
(F66.93704353829364
F40.40825123963646
tp300
sg4
F0.0
sa(dp301
g2
(F80.53306414426177
F27.990767666893767
tp302
sg4
F204.00551902746398
sa(dp303
g2
(F86.17182801206384
F49.27626600931286
tp304
sg4
F0.0
sa(dp305
g2
(F86.3402628688894
F28.10508286059783
tp306
sg4
F180.176204961693
sa(dp307
g2
(F91.57744729797568
F30.292124900011615
tp308
sg4
F192.4396295384813
sa(dp309
g2
(F90.14303365337919
F39.583624548966284
tp310
sg4
F184.34222208022095
sa(dp311
g2
(F64.0434382359678
F32.20945970177911
tp312
sg4
F0.0
sa(dp313
g2
(F66.68484045184707
F14.383021284220327
tp314
sg4
F162.99989488314904
sa(dp315
g2
(F69.75012151596772
F33.3303711266381
tp316
sg4
F0.0
sa(dp317
g2
(F57.46921381948016
F20.551186847707147
tp318
sg4
F0.0
sa(dp319
g2
(F58.68317373561857
F35.55151425393442
tp320
sg4
F0.0
sa(dp321
g2
(F53.00787991905427
F27.18860299582505
tp322
sg4
F0.0
sa(dp323
g2
(F93.83747369055814
F19.907452539916175
tp324
sg4
F91.08640753445697
sa(dp325
g2
(F56.05596007548929
F41.42248150777821
tp326
sg4
F0.0
sa(dp327
g2
(F71.41072928738828
F28.9029307771552
tp328
sg4
F0.0
sa(dp329
g2
(F89.0899353540164
F44.35878000538121
tp330
sg4
F0.0
sa(dp331
g2
(F81.49408518610177
F46.609813580410965
tp332
sg4
F0.0
sa(dp333
g2
(F87.55611468831242
F38.088232988457854
tp334
sg4
F225.95064394444597
sa(dp335
g2
(F91.78234603817086
F36.52060588037993
tp336
sg4
F227.34422932050998
sa(dp337
g2
(F69.80312696786635
F20.423902922340393
tp338
sg4
F174.63901302502987
sa(dp339
g2
(F63.173629218197945
F48.42420725669299
tp340
sg4
F0.0
sa(dp341
g2
(F57.30010829524858
F28.328168094767296
tp342
sg4
F0.0
sa(dp343
g2
(F80.19837123458834
F40.29451479826429
tp344
sg4
F0.0
sa(dp345
g2
(F65.2215051537253
F18.8297603295232
tp346
sg4
F52.48628895673342
sa(dp347
g2
(F68.4920307824582
F31.37090541976025
tp348
sg4
F0.0
sa(dp349
g2
(F91.43126480886394
F17.354397173382104
tp350
sg4
F103.03895087279413
sa(dp351
g2
(F57.42817037284551
F31.782441533659266
tp352
sg4
F0.0
sa(dp353
g2
(F85.21257341614506
F30.281269995011
tp354
sg4
F203.51744904518478
sa(dp355
g2
(F99.32711778990395
F13.63289316600641
tp356
sg4
F63.88314496088764
sa(dp357
g2
(F82.932038200476
F39.25301835661726
tp358
sg4
F0.0
sa(dp359
g2
(F91.17225289458744
F0.7569710361185145
tp360
sg4
F9.711230617837927
sa(dp361
g2
(F72.26986682048025
F32.64860055904272
tp362
sg4
F0.0
sa(dp363
g2
(F85.33349515400565
F6.572362264116838
tp364
sg4
F44.4731202567384
sa(dp365
g2
(F82.43668852204186
F27.135724051316153
tp366
sg4
F210.85344996031557
sa(dp367
g2
(F60.13032031865863
F20.462853373138763
tp368
sg4
F0.0
sa(dp369
g2
(F95.21192779455691
F34.03468231116998
tp370
sg4
F217.4258722873017
sa(dp371
g2
(F80.47570739293414
F0.377855503578145
tp372
sg4
F8.600201844745271
sa(dp373
g2
(F50.039614773696414
F20.84278769044558
tp374
sg4
F0.0
sa(dp375
g2
(F82.61395916645105
F37.54528562258272
tp376
sg4
F3.337290570512245
sa(dp377
g2
(F52.30276991965889
F4.907266988593967
tp378
sg4
F61.60741275233393
sa(dp379
g2
(F98.96785762393026
F43.43686365948435
tp380
sg4
F211.80441579836497
sa(dp381
g2
(F54.402159235729236
F16.0588918864974
tp382
sg4
F0.0
sa(dp383
g2
(F70.22263103471442
F11.302193015247408
tp384
sg4
F118.3524911795422
sa(dp385
g2
(F58.508119184393564
F20.256223750042206
tp386
sg4
F0.0
sa(dp387
g2
(F58.91461001367041
F3.46858384310052
tp388
sg4
F67.11374657127149
sa(dp389
g2
(F79.99136906782036
F41.53225468007003
tp390
sg4
F0.0
sa(dp391
g2
(F81.16303420071702
F0.23496281286864984
tp392
sg4
F8.093196584038855
sa(dp393
g2
(F95.83966789928701
F6.762670216463645
tp394
sg4
F47.39323842453124
sa(dp395
g2
(F51.50588543241288
F28.725372723770498
tp396
sg4
F0.0
sa(dp397
g2
(F61.06554429284246
F15.841212321476366
tp398
sg4
F7.889376294450184
sa(dp399
g2
(F62.49684099739363
F18.806513396483695
tp400
sg4
F0.0
sa(dp401
g2
(F86.56026395204414
F30.609486918757188
tp402
sg4
F172.15445834327883
sa(dp403
g2
(F54.93589265765028
F17.426797426414737
tp404
sg4
F0.0
sa(dp405
g2
(F77.23914147112409
F13.024671459916803
tp406
sg4
F102.47695849432247
sa(dp407
g2
(F83.26017220478882
F12.797675439922312
tp408
sg4
F76.22976783839404
sa(dp409
g2
(F87.72722331052167
F0.7900436143364553
tp410
sg4
F10.556092369590372
sa(dp411
g2
(F55.59769303721765
F44.55505677675144
tp412
sg4
F0.0
sa(dp413
g2
(F91.91718374803736
F20.692614454421122
tp414
sg4
F103.13544017842105
sa(dp415
g2
(F99.32671042336679
F23.127349274414254
tp416
sg4
F116.57723566739442
sa(dp417
g2
(F63.10101648597289
F46.68595735638278
tp418
sg4
F0.0
sa(dp419
g2
(F74.21769566254648
F5.821091604891803
tp420
sg4
F46.99552425320765
sa(dp421
g2
(F73.8298209682744
F24.612554605432678
tp422
sg4
F144.00178203524857
sa(dp423
g2
(F73.85952147799341
F39.85583194661053
tp424
sg4
F0.0
sa(dp425
g2
(F89.31252976295413
F4.224219849116423
tp426
sg4
F28.747207179364995
sa(dp427
g2
(F54.80679017037956
F9.206430852987262
tp428
sg4
F15.224600050302195
sa(dp429
g2
(F93.55324611650397
F35.5354345173717
tp430
sg4
F223.84622796379773
sa(dp431
g2
(F68.52471509599393
F3.3703168573336164
tp432
sg4
F44.771137782476615
sa(dp433
g2
(F64.67930397806117
F47.570346451533865
tp434
sg4
F0.0
sa(dp435
g2
(F93.1419082340094
F35.14018721130376
tp436
sg4
F216.20286380500576
sa(dp437
g2
(F90.62192358843873
F10.39767244468759
tp438
sg4
F66.7106854007241
sa(dp439
g2
(F85.46328081446318
F16.320412718033424
tp440
sg4
F110.98514047487117
sa(dp441
g2
(F60.74880507228392
F3.966880304670928
tp442
sg4
F71.23051735319237
sa(dp443
g2
(F71.14714338985827
F5.0090936485962185
tp444
sg4
F50.038118991669435
sa(dp445
g2
(F62.041110538258295
F31.134078953822904
tp446
sg4
F0.0
sa(dp447
g2
(F54.197123164962356
F23.64814636806897
tp448
sg4
F0.0
sa(dp449
g2
(F85.8499328171518
F22.963048303590472
tp450
sg4
F171.49285723165804
sa(dp451
g2
(F89.33913469617355
F8.402763214236991
tp452
sg4
F55.91596518989574
sa(dp453
g2
(F53.80602377525317
F43.14743572149468
tp454
sg4
F0.0
sa(dp455
g2
(F50.4173255930316
F17.094779694316326
tp456
sg4
F0.0
sa(dp457
g2
(F58.28848201416937
F47.07872508278065
tp458
sg4
F0.0
sa(dp459
g2
(F85.10084145165536
F31.530562862907235
tp460
sg4
F208.710045046394
sa(dp461
g2
(F52.8019691870954
F48.338160658367805
tp462
sg4
F0.0
sa(dp463
g2
(F59.01170279239034
F9.440756252089578
tp464
sg4
F110.72507291688169
sa(dp465
g2
(F51.0727483751395
F26.641622467780536
tp466
sg4
F0.0
sa(dp467
g2
(F66.15305980079864
F3.128592469941954
tp468
sg4
F41.09662671796324
sa(dp469
g2
(F65.11536365966295
F25.79871214935937
tp470
sg4
F0.0
sa(dp471
g2
(F64.22548003894359
F9.050065700866107
tp472
sg4
F99.63660263208219
sa(dp473
g2
(F86.35483827612077
F27.791560863119347
tp474
sg4
F192.88139381792664
sa(dp475
g2
(F64.60207799360026
F41.36596627007648
tp476
sg4
F0.0
sa(dp477
g2
(F70.50268015281893
F45.44718597538844
tp478
sg4
F0.0
sa(dp479
g2
(F87.38312120951838
F36.17368766472293
tp480
sg4
F192.00052898305012
sa(dp481
g2
(F90.9159923020991
F44.48685700349458
tp482
sg4
F59.8556400096551
sa(dp483
g2
(F79.65528693185775
F43.673897035447936
tp484
sg4
F0.0
sa(dp485
g2
(F83.85525979228683
F18.55308620735571
tp486
sg4
F113.62599388054589
sa(dp487
g2
(F95.09326573952649
F8.041978894709684
tp488
sg4
F55.887626485370326
sa(dp489
g2
(F98.72485795487519
F45.594547544266604
tp490
sg4
F265.8247760166012
sa(dp491
g2
(F96.98696321533716
F35.531847498982216
tp492
sg4
F185.98762471056295
sa(dp493
g2
(F73.72477294418437
F18.093497410401927
tp494
sg4
F132.99088352788922
sa(dp495
g2
(F98.80185976504347
F39.781250077224456
tp496
sg4
F206.9651201664709
sa(dp497
g2
(F64.73287838833454
F45.893835497516974
tp498
sg4
F0.0
sa(dp499
g2
(F73.42089729765128
F21.211586554699775
tp500
sg4
F204.17619345740167
sa(dp501
g2
(F97.93969802058353
F43.16725987914529
tp502
sg4
F247.3731418793627
sa(dp503
g2
(F54.05480248700809
F47.767526330896594
tp504
sg4
F0.0
sa(dp505
g2
(F68.5577509356315
F31.644543251314172
tp506
sg4
F0.0
sa(dp507
g2
(F99.39535599730618
F3.24405461813107
tp508
sg4
F25.47079734804818
sa(dp509
g2
(F78.48411819361183
F36.3925542061523
tp510
sg4
F0.0
sa(dp511
g2
(F50.198954143880776
F33.977379699828965
tp512
sg4
F0.0
sa(dp513
g2
(F76.3111249800826
F24.6515560601195
tp514
sg4
F179.03499955790895
sa(dp515
g2
(F57.408696003629004
F49.75082489958442
tp516
sg4
F0.0
sa(dp517
g2
(F97.31390993238686
F3.774517143403661
tp518
sg4
F21.9329703151148
sa(dp519
g2
(F89.32625684427384
F45.107796619571396
tp520
sg4
F0.0
sa(dp521
g2
(F68.11601870778495
F23.80305057311183
tp522
sg4
F0.0
sa(dp523
g2
(F66.86081729635983
F9.860006952718631
tp524
sg4
F98.21998688652857
sa(dp525
g2
(F96.26834582374107
F3.832223742657914
tp526
sg4
F28.1595204562928
sa(dp527
g2
(F77.34651662443609
F21.293480515586506
tp528
sg4
F184.4067287615461
sa(dp529
g2
(F60.82850493216265
F47.950852768853245
tp530
sg4
F0.0
sa(dp531
g2
(F50.917579341379216
F13.782737240463645
tp532
sg4
F0.0
sa(dp533
g2
(F67.38368949898377
F20.06341448646104
tp534
sg4
F68.0228043273285
sa(dp535
g2
(F78.54976343952751
F0.7198639261244533
tp536
sg4
F12.324751167639661
sa(dp537
g2
(F61.45380861903379
F5.045398062396145
tp538
sg4
F67.28741107324254
sa(dp539
g2
(F86.09912725072815
F2.492071804039547
tp540
sg4
F19.667134082161283
sa(dp541
g2
(F96.04944734750325
F24.16558788659095
tp542
sg4
F129.2010132958702
sa(dp543
g2
(F85.4915783154186
F43.49163515846673
tp544
sg4
F0.0
sa(dp545
g2
(F55.7805336519047
F2.6248599152962737
tp546
sg4
F99.46458731572184
sa(dp547
g2
(F76.15516734193504
F10.414512402187153
tp548
sg4
F67.00129318001507
sa(dp549
g2
(F57.23999716629231
F35.829714133847105
tp550
sg4
F0.0
sa(dp551
g2
(F87.33892393545645
F34.05309225001218
tp552
sg4
F241.58829457331683
sa(dp553
g2
(F80.68979155903354
F24.95629848499179
tp554
sg4
F142.401786337627
sa(dp555
g2
(F55.373027509137465
F10.508353262295927
tp556
sg4
F0.0
sa(dp557
g2
(F97.69083880784217
F14.755224293278568
tp558
sg4
F76.13125656844075
sa(dp559
g2
(F72.17394532621582
F41.167498182895564
tp560
sg4
F0.0
sa(dp561
g2
(F99.31935841636363
F11.537562273900337
tp562
sg4
F70.47525255528495
sa(dp563
g2
(F78.58770073150166
F34.42283825807972
tp564
sg4
F0.0
sa(dp565
g2
(F71.97890019047057
F43.615126580927544
tp566
sg4
F0.0
sa(dp567
g2
(F56.91661736561385
F21.15271428911128
tp568
sg4
F0.0
sa(dp569
g2
(F52.624175981126314
F39.87315079613665
tp570
sg4
F0.0
sa(dp571
g2
(F64.72054206008526
F32.29254302303172
tp572
sg4
F0.0
sa(dp573
g2
(F92.12174565862298
F49.56433731465984
tp574
sg4
F0.0
sa(dp575
g2
(F57.30674432884374
F34.714749559205806
tp576
sg4
F0.0
sa(dp577
g2
(F78.5729589689457
F7.465523800229729
tp578
sg4
F50.80962537676023
sa(dp579
g2
(F58.83532784634471
F39.85879554815991
tp580
sg4
F0.0
sa(dp581
g2
(F60.94744760589458
F9.259598908019328
tp582
sg4
F121.91393037812963
sa(dp583
g2
(F67.99299848066714
F29.53080620320046
tp584
sg4
F0.0
sa(dp585
g2
(F63.1994595979793
F30.69736598486863
tp586
sg4
F0.0
sa(dp587
g2
(F57.24033072541824
F34.10949663126238
tp588
sg4
F0.0
sa(dp589
g2
(F61.71363100657807
F46.53708064050214
tp590
sg4
F0.0
sa(dp591
g2
(F61.213874784814706
F14.688977874287229
tp592
sg4
F48.756291552708824
sa(dp593
g2
(F95.33382969022966
F20.648005532450586
tp594
sg4
F113.84820740419836
sa(dp595
g2
(F70.51818057225302
F33.3012565673046
tp596
sg4
F0.0
sa(dp597
g2
(F59.449708475336415
F38.45300788703172
tp598
sg4
F0.0
sa(dp599
g2
(F60.51077001655728
F17.826216484795705
tp600
sg4
F0.0
sa(dp601
g2
(F59.77788362285116
F37.865260628738596
tp602
sg4
F0.0
sa.