(dp0
V300919238961
p1
(V14
p2
V3 GB
p3
V2.20 GHz
p4
V100 GB
p5
tp6
sV360676755766
p7
(V15.4"
p8
V2.0 GB
p9
V2.2 GHz
p10
VNOT INCLUDED
p11
tp12
sV121130466554
p13
(V13.3 inch
p14
V4 GB
p15
V1.4 GHz
p16
V128 GB
p17
tp18
sV350805019492
p19
(V11.6"
p20
V4 GB
p21
V1.4 GHz
p22
V500 GB
p23
tp24
sV271226444057
p25
(V15.4"
p26
V4 GB
p27
V2.40 GHz
p28
V250 GB
p29
tp30
sV310692772190
p31
(V14.1"
p32
V2 GB
p33
V2.53 GHz
p34
V160 GB
p35
tp36
sV261220314438
p37
(V14.1"
p38
V2 gig
p39
V2 GHz
p40
V40 GB
p41
tp42
sV251291558061
p43
(V14"
p44
V2 GB
p45
V2.40 GHz
p46
V320 GB
p47
tp48
sV330940651327
p49
(V15"
p50
V1 GB
p51
V2.00 GHz
p52
V80GB.
p53
tp54
sV251292315415
p55
(V13.3 touch
p56
V4000
p57
V1.8
p58
V128 SSD
p59
tp60
sV121119074501
p61
(V17.3"
p62
V6 GB
p63
V2.4 GHz
p64
V750 GB
p65
tp66
sV141001001488
p67
(V15.4 (WXGA)
p68
V5.0 GB
p69
V2.26 GHz (3MB L2 Cache!!)
p70
V1.0 TB (1000 GB)
p71
tp72
sV360676690776
p73
(V11.6"
p74
V4 GB
p75
V1.9 GHz
p76
V256 GB
p77
tp78
sV360679201900
p79
(V14.1"
p80
V4 GB
p81
V2.66 GHz
p82
V320 GB
p83
tp84
sV251292693002
p85
(V11.6"
p86
V4GB
p87
V1GHz
p88
V320GB
p89
tp90
sV121126704984
p91
(V10.1
p92
V1 GB
p93
V1.66 GHz
p94
V160 GB
p95
tp96
sV141001492098
p97
(V15.6"
p98
V8 GB
p99
V3.40 GHz Max Turbo
p100
V1TB + 16GB SSD
p101
tp102
sV161049076745
p103
(V14.1"
p104
V2 GB
p105
V2.53 GHz
p106
V160 GB
p107
tp108
sV360679114026
p109
(V14"
p110
V2.0 GB
p111
V2.0 GHz
p112
VNOT INCLUDED
p113
tp114
sV221222941466
p115
(V15.6"
p116
V4 GB
p117
V3.0 GHz
p118
V640 GB
p119
tp120
sV360679868936
p121
(V12.1"
p122
V2 GB
p123
V1.6 GHz
p124
V128 GB
p125
tp126
sV111080096759
p127
(V14"
p128
V1 GB
p129
V1.7 GHz
p130
VNot Included
p131
tp132
sV281122522569
p133
(V10.1"
p134
V2 GB
p135
V1.5 GHz
p136
V320 GB
p137
tp138
sV330927842716
p139
(V15.6"
p140
V6 GB
p141
V3.10 GHz
p142
V750 GB
p143
tp144
sV281106014156
p145
(V15.6"
p146
V4 GB
p147
V2.67 - 3.2 GHZ
p148
V500 GB
p149
tp150
sV390613892813
p151
(V15.6"
p152
V4 GB
p153
V2.67 GHz
p154
V500 GB
p155
tp156
sV151063845627
p157
(V11.6"
p158
V4 GB
p159
V1.6 GHz
p160
V500 GB
p161
tp162
sV121130680759
p163
(V14.1"
p164
V4 GB
p165
V2.40 GHz
p166
V80GB
p167
tp168
sV261233730222
p169
(V17.3"
p170
V4 GB
p171
V2.13 GHz
p172
V500 GB
p173
tp174
sV151067523099
p175
(V15.6"
p176
V8 GB
p177
V1.80 GHz
p178
V200GB
p179
tp180
sV300920443311
p181
(V12.5"
p182
V8 GB
p183
V2.50 GHz
p184
V128 GB SSD
p185
tp186
sV151065615358
p187
(V15.6"
p188
V8GB
p189
VUp to 3.1GHz
p190
V750 GB
p191
tp192
sV121125377715
p193
(V14.1"
p194
V1.49 GB RAM
p195
V1.40 GHz
p196
V40 GB
p197
tp198
sV251272710929
p199
(V15.6"
p200
V6 GB
p201
V1.7 GHz
p202
V750GB
p203
tp204
sV290903257589
p205
(V15.6"
p206
V4 GB
p207
V2.70 GHz
p208
V500 GB
p209
tp210
sV380662209256
p211
(V14.1"
p212
V3 GB
p213
V2.53 GHz
p214
V160 GB
p215
tp216
sV130932578511
p217
(V14.1"
p218
V6 GB
p219
V2.26 GHz
p220
V320 GB
p221
tp222
sV251289132185
p223
(V14.1"
p224
V3 GB
p225
V1.66 GHz
p226
V160 GB
p227
tp228
sV350812979632
p229
(V14"
p230
V4 GB
p231
V2.35 GHz
p232
V264 GB
p233
tp234
sV271226443655
p235
(V13.3"
p236
V4 GB
p237
V1.20 GHz
p238
V64 GB
p239
tp240
sV111102907062
p241
(V15.6"
p242
V8 GB
p243
V2.50 GHz
p244
V1 TB
p245
tp246
sV171060719273
p247
(V15.4"
p248
V1.0 GB
p249
V2.4 GHz
p250
VNOT INCLUDED
p251
tp252
sV140997314151
p253
(V14.1"
p254
V2 GB
p255
V2.10 GHz
p256
V160 GB
p257
tp258
sV200935528107
p259
(V14"
p260
V4 GB
p261
V2.2 GHz
p262
V500 GB
p263
tp264
sV121126844161
p265
(V15.6"
p266
V4 GB
p267
V1.80 GHz
p268
V500 GB
p269
tp270
sV161041753237
p271
(V14"
p272
V4 GB
p273
V2.60 GHz
p274
V500 GB
p275
tp276
sV360679177659
p277
(V15.4"
p278
V4 GB
p279
V2.53 GHz
p280
V80 GB
p281
tp282
sV310672573060
p283
(V15.6"
p284
V4 GB
p285
V1.7 GHz
p286
V128 GB
p287
tp288
sV360679158315
p289
(V14"
p290
V2.0 GB
p291
V2.0 GHz
p292
VNOT INCLUDED
p293
tp294
sV200917376280
p295
(V15.6"
p296
V4 GB
p297
V2.5 GHz
p298
V500 GB
p299
tp300
sV181161331207
p301
(V14.1"
p302
V2 GB
p303
V2.53 GHz
p304
V160 GB
p305
tp306
sV360679222782
p307
(V15.4"
p308
V3.0 GB
p309
V2.1 GHz
p310
VNOT INCLUDED
p311
tp312
sV181161728344
p313
(V14
p314
V4 GB
p315
V1.70 GHz
p316
V500 GB
p317
tp318
sV171062211182
p319
(V14.1"
p320
V1 GB
p321
V1.86 GHz
p322
V80 GB
p323
tp324
sV111100661211
p325
(V15.4"
p326
V2.0 GB
p327
V2.0 GHz
p328
VNOT INCLUDED
p329
tp330
sV151067528064
p331
(V13.3"
p332
V8 GB
p333
V1.90 GHz
p334
V256 GB
p335
tp336
sV171061669687
p337
(V12.1"
p338
V1Gb
p339
V1.86 GHz
p340
V60Gb
p341
tp342
sV181160476919
p343
(V15.6"
p344
V2 GB
p345
V2.26 GHz
p346
V250 GB
p347
tp348
sV290935060214
p349
(V17.3"
p350
V6 GB
p351
V2.10 GHz
p352
V640 GB
p353
tp354
sV251275207510
p355
(V14"
p356
V8 GB
p357
V3 GHz
p358
V500 GB
p359
tp360
sV261233810932
p361
(V15.6"
p362
V8GB
p363
V2.00 GHz
p364
V532GB
p365
tp366
sV360680576733
p367
(V15.6"
p368
V4 GB
p369
V2.53 GHz
p370
V320 GB
p371
tp372
sV380662139177
p373
(V14.1"
p374
V4 GB
p375
V2.53 GHz
p376
V160 GB
p377
tp378
sV130932765640
p379
(V15.6"
p380
V4 GB
p381
V1.80 GHz
p382
V500 GB
p383
tp384
sV261233730613
p385
(V11.6"
p386
V4 GB
p387
V1.4 GHz
p388
V320 GB
p389
tp390
sV171061025535
p391
(V15.4"
p392
V2 GB
p393
V2.4 GHz
p394
V120 GB
p395
tp396
sV290934400734
p397
(V15.6
p398
V8 GB
p399
V1.70 GHz
p400
V750 GB
p401
tp402
sV231003352847
p403
(V14.1"
p404
V4 GB
p405
V2.40 GHz
p406
V160 GB
p407
tp408
sV171062639732
p409
(V14.1"
p410
V2 GB
p411
V1.66 GHz
p412
V40 GB
p413
tp414
sV300919687853
p415
(V12.5"
p416
V4 GB
p417
V2.5 GHz
p418
V500 GB
p419
tp420
sV111098724177
p421
(V11.6"
p422
V4 GB
p423
V1.8 GHz
p424
V500 GB
p425
tp426
sV230993476865
p427
(V17.3"
p428
V6GB
p429
V3.1GHz
p430
V1TB
p431
tp432
sV271226279979
p433
(V13.3"
p434
V4 GB
p435
V1.8 GHz
p436
V128 GB
p437
tp438
sV171062159854
p439
(V13.3"
p440
V4 GB
p441
V2.40 GHz
p442
V80 GB
p443
tp444
sV360679113414
p445
(V15.4"
p446
V2.0 GB
p447
V2.1 GHz
p448
VNOT INCLUDED
p449
tp450
sV121129093384
p451
(V17"
p452
V8 GB
p453
V2.40 GHz
p454
V2 TB
p455
tp456
sV281121448604
p457
(V14" HD
p458
V12 GB DDR3
p459
V2.6 GHz
p460
V256GB SSD
p461
tp462
sV261230585969
p463
(V15.6"
p464
V4 GB
p465
V2.50 GHz
p466
V500 GB
p467
tp468
sV310692104879
p469
(V14"
p470
V3 GB
p471
V2.4 GHz
p472
V250 GB
p473
tp474
sV161050174045
p475
(V18.4"
p476
V16 GB
p477
V2.50 GHz
p478
V1 TB
p479
tp480
sV171061550005
p481
(V15.6"
p482
V2 GB
p483
V2.26 GHz
p484
V160 GB
p485
tp486
sV121113935991
p487
(V14"
p488
V8 GB
p489
V3.00 GHz
p490
V500 GB
p491
tp492
sV121129170787
p493
(V14.1"
p494
V2 GB
p495
V1.83 GHz
p496
V80 GB
p497
tp498
sV251269876984
p499
(V17.3"
p500
V8 GB
p501
V2.10 GHz
p502
V500 GB
p503
tp504
sV181158041165
p505
(V14
p506
V2 GB
p507
V1.66 GHz
p508
V120 GB
p509
tp510
sV281123138322
p511
(V13.3"
p512
V4 GB
p513
V1.80 GHz
p514
V128 GB
p515
tp516
sV321146299211
p517
(V15.6"
p518
V4 GB
p519
V2.30 GHz
p520
V320 GB
p521
tp522
sV251293302124
p523
(V14.1"
p524
V4 GB
p525
V2.30 GHz
p526
V250 GB
p527
tp528
sV151063600910
p529
(V15.6"
p530
V4 GB
p531
V2.2 GHz
p532
V320 GB
p533
tp534
sV380661224929
p535
(V14.1"
p536
V4 GB
p537
V2.80 GHz
p538
V320 GB
p539
tp540
sV370834235081
p541
(V15"
p542
V2 GB
p543
V2.00 GHz
p544
V100 GB
p545
tp546
sV121126813542
p547
(V14"
p548
V1 GB
p549
V1.83 GHz
p550
V60 GB
p551
tp552
sV360679128616
p553
(V15.4"
p554
V2.0 GB
p555
V2.0 GHz
p556
VNOT INCLUDED
p557
tp558
sV330940912898
p559
(V15.4"
p560
V2 GB
p561
V2.00 GHz
p562
V80gb
p563
tp564
sV261232303502
p565
(V14.1"
p566
V1 GB
p567
V1.80 GHz
p568
V40 GB
p569
tp570
sV171062369671
p571
(V14.1"
p572
V4 GB
p573
V2.16 GHz
p574
V80gb
p575
tp576
sV360679096396
p577
(V14"
p578
V2.0 GB
p579
V2.66 GHz
p580
VNOT INCLUDED
p581
tp582
sV130932125648
p583
(V14"
p584
V8 GB
p585
V2.6 - 3.3 GHz
p586
V320 GB
p587
tp588
sV151063635614
p589
(V15.6"
p590
V3 GB
p591
V1.6 GHz
p592
V320 GB
p593
tp594
sV121130157126
p595
(V10.1"
p596
V1 GB
p597
V1.6 GHz
p598
V320 GB
p599
tp600
sV281124120009
p601
(V15.4"
p602
V3 GB
p603
V2.26 GHz
p604
V250 GB
p605
tp606
sV171058795441
p607
(V14"
p608
V8 GB
p609
V2.20 GHz
p610
V1 TB
p611
tp612
sV290933803110
p613
(V13.3"
p614
V4 GB
p615
V2.40 GHz
p616
V320 GB
p617
tp618
sV390611220492
p619
(V11.6"
p620
V2 GB
p621
V1.7 GHz
p622
V16 GB
p623
tp624
sV330940118570
p625
(V14"
p626
V4 GB
p627
V2.00 GHz
p628
V80 GB
p629
tp630
sV200923344172
p631
(V15.6"
p632
V4 GB
p633
V1.80 GHz
p634
V320 GB
p635
tp636
sV160936851821
p637
(V15.6"
p638
V8 GB
p639
V3.4 GHz (max, with Turbo Boost) 
p640
V750 GB
p641
tp642
sV171060835424
p643
(V14"
p644
V2.0 GB
p645
V2.2 GHz
p646
VNOT INCLUDED
p647
tp648
sV121126829360
p649
(V14.1"
p650
VNot Included
p651
V1.40 GHz
p652
VNot Included
p653
tp654
sV221243116113
p655
(V12.5"
p656
V4 GB
p657
V2.90 GHz
p658
V128GB Solid State Drive
p659
tp660
sV111102762983
p661
(V14"
p662
V512 MB
p663
V2.60 GHz
p664
V128 GB SSD
p665
tp666
sV200935781103
p667
(V13.3"
p668
V4 GB
p669
V2.40 GHz
p670
V250 GB
p671
tp672
sV380650903435
p673
(V14.1"
p674
V4 GB
p675
V2.66 GHz
p676
V80 GB
p677
tp678
sV161050606917
p679
(V15.6"
p680
V4 GB
p681
V1.5 GHz
p682
V500 GB
p683
tp684
sV221241640418
p685
(V15.6"
p686
V3 GB
p687
V2.3 GHz
p688
V320 GB
p689
tp690
sV161049663321
p691
(V14"
p692
V4 GB
p693
V2.4 GHz
p694
V320 GB
p695
tp696
sV140988533765
p697
(V14
p698
V1GB
p699
V2GHz
p700
V80GB
p701
tp702
sV151067319645
p703
(V18.4
p704
V16 GB
p705
V2.20 GHz
p706
V1tb
p707
tp708
sV171060765088
p709
(V14"
p710
V2.0 GB
p711
V2.0 GHz
p712
VNOT INCLUDED
p713
tp714
sV111098952300
p715
(V10.1"
p716
V1 GB
p717
V1.66 GHz
p718
V250 GB
p719
tp720
sV251293082255
p721
(V12.5"
p722
V4 GB
p723
V2.60 GHz
p724
V500 GB
p725
tp726
sV390613094575
p727
(V11.6"
p728
V2 GB
p729
V1.7 GHz
p730
V16 GB
p731
tp732
sV350817342372
p733
(V15.4"
p734
V1 GB
p735
V1.66 GHz
p736
V60 GB
p737
tp738
sV130932422708
p739
(V14.1"
p740
V4 GB
p741
V2.66 GHz
p742
V250 GB
p743
tp744
sV360676668674
p745
(V15.6"
p746
V2 GB
p747
V2.2 GHz
p748
V320 GB
p749
tp750
sV251293081198
p751
(V15.6"
p752
V4GB
p753
V1.6GHz
p754
V500GB
p755
tp756
sV360679256505
p757
(V17"
p758
V4 GB
p759
V2.53 GHz
p760
V160 GB
p761
tp762
sV261230449893
p763
(V15.6"
p764
V6 GB
p765
V1.7 GHz
p766
V750 GB
p767
tp768
sV151066157588
p769
(V13.3"
p770
V4 GB
p771
V2.53 GHz
p772
V160 GB
p773
tp774
sV261176522225
p775
(V15.6"
p776
V6 GB
p777
V2.2 GHz
p778
V750 GB
p779
tp780
sV221240736963
p781
(V8.9"
p782
V1 GB
p783
V1.6 GHz
p784
V16 GB
p785
tp786
sV171062294396
p787
(V14"
p788
V4.0 GB
p789
V2.4 GHz
p790
V160 GB
p791
tp792
sV360679116945
p793
(V14"
p794
V2.0 GB
p795
V2.0 GHz
p796
VNOT INCLUDED
p797
tp798
sV310692144048
p799
(V14"
p800
V3 GB
p801
V2.4 GHz
p802
V250 GB
p803
tp804
sV360679225656
p805
(V14.1"
p806
V4 GB
p807
V2.80 GHz
p808
V250 GB
p809
tp810
sV330939989096
p811
(V10.1"
p812
V1 GB
p813
V1.6 GHz
p814
V250 GB
p815
tp816
sV151067412764
p817
(V14"
p818
V4gb
p819
V2.5ghz
p820
V250gb
p821
tp822
sV380662202491
p823
(V15.4"
p824
V8 GB
p825
V2.80 GHz
p826
V250 GB
p827
tp828
sV190826491025
p829
(V14.1"
p830
V2 GB
p831
V2.53 GHz
p832
V80 GB
p833
tp834
sV130928611755
p835
(V15"
p836
V512 MB
p837
V1.50 GHz
p838
V64 GB
p839
tp840
sV121127833134
p841
(V10.1"
p842
V1GB
p843
V1.60 GHz
p844
V80 GB
p845
tp846
sV300896640487
p847
(V14.1
p848
V4GB
p849
V2.0GHz
p850
V1TB
p851
tp852
sV171058311975
p853
(V13.3"
p854
V8 GB
p855
V3.5 (with turbo boost)
p856
V512 GB
p857
tp858
sV171062415538
p859
(V11.6"
p860
V4 GB
p861
V1.7 GHz
p862
V500 GB
p863
tp864
sV130919827406
p865
(V15.6"
p866
V8 GB
p867
V3300
p868
V1T
p869
tp870
sV231002013104
p871
(V13.3"
p872
V2 GB
p873
V2.26 GHz
p874
V320 GB
p875
tp876
sV171060231818
p877
(V15.6"
p878
V16GB
p879
VUp to 3.1GHz
p880
V1TB=1000GB
p881
tp882
sV281123856789
p883
(V13.3"
p884
V4 GB
p885
V1.7 GHz
p886
V128 GB
p887
tp888
sV130932890031
p889
(V14.1"
p890
V2 GB
p891
V2.26 GHz
p892
V120 GB
p893
tp894
sV251289954675
p895
(V12.1"
p896
V2 GB
p897
V1.66 GHz
p898
V64 GB
p899
tp900
sV111096467007
p901
(V11.6"
p902
V4 GB
p903
V1.80 GHz
p904
V500 GB
p905
tp906
sV221243456968
p907
(V15.1"
p908
V1 GB
p909
V1.60 Ghz
p910
V40 GB
p911
tp912
sV251292538865
p913
(V14.1"
p914
V2 GB
p915
V1.66 GHz
p916
V80 GB
p917
tp918
sV251293060374
p919
(V15.6"
p920
V8 GB
p921
V2.70 GHz
p922
V500 GB
p923
tp924
sV261232322027
p925
(V15.6"
p926
V4GB
p927
V1.4GHz
p928
V500GB
p929
tp930
sV111103049151
p931
(V12.5"
p932
V4 GB
p933
V1.7 GHz
p934
V128 GB
p935
tp936
sV300922746768
p937
(V15.6"
p938
V4 GB
p939
V1.30 GHz
p940
V320 GB
p941
tp942
sV111100730779
p943
(V14"
p944
V2.0 GB
p945
V2.2 GHz
p946
VNOT INCLUDED
p947
tp948
sV181160477026
p949
(V14.0"
p950
V1 GB
p951
V2.10 GHz
p952
V80 GB
p953
tp954
sV271226576108
p955
(V15.4
p956
V4 GB
p957
V2.00 GHz
p958
V120 GB
p959
tp960
sV290934731369
p961
(V14"
p962
V4 GB
p963
V2.1 GHz
p964
V500 GB
p965
tp966
sV310691070879
p967
(V14.1"
p968
V4 GB
p969
V2.53 GHz
p970
V160 GB
p971
tp972
sV151065955739
p973
(V15.4"
p974
V2 GB
p975
V2.26 GHz
p976
V160 GB
p977
tp978
sV200935552488
p979
(V10.1
p980
V2 GB
p981
V1.50 GHz
p982
V250 GB
p983
tp984
sV350815841835
p985
(V15.6"
p986
V6 GB
p987
V2.50 GHz
p988
V640 GB
p989
tp990
sV181161762073
p991
(V17.3"
p992
V12 GB
p993
V3.40 GHz
p994
V1 TB
p995
tp996
sV181157163980
p997
(V15.2"
p998
V2 GB
p999
V1.86 GHz
p1000
V80GB
p1001
tp1002
sV380652034721
p1003
(V15.6"
p1004
V4 GB
p1005
V1.73 GHz
p1006
V320 GB
p1007
tp1008
sV230995150900
p1009
(V15.6"
p1010
V4 GB
p1011
V1.7 GHz
p1012
V320 GB
p1013
tp1014
sV330930037803
p1015
(V15.6"
p1016
V8 GB
p1017
V2 GHz
p1018
V1 TB
p1019
tp1020
sV271225724048
p1021
(V14.1"
p1022
V2 GB
p1023
V2.53 GHz
p1024
V160 GB
p1025
tp1026
sV140999764928
p1027
(V14.1"
p1028
V1 GB
p1029
V1.66 GHz
p1030
V60 GB
p1031
tp1032
sV261233809697
p1033
(V15.6"
p1034
V6GB
p1035
V1.8GHz
p1036
V500GB
p1037
tp1038
sV130931955861
p1039
(V15.6"
p1040
V4 GB
p1041
V2.10 GHz
p1042
V320 GB
p1043
tp1044
sV360679184656
p1045
(V14"
p1046
V2.0 GB
p1047
V2.0 GHz
p1048
VNOT INCLUDED
p1049
tp1050
sV360679137166
p1051
(V15.4"
p1052
V2.0 GB
p1053
V2.0 GHz
p1054
VNOT INCLUDED
p1055
tp1056
sV370834930980
p1057
(V17.3"
p1058
V16 GB
p1059
V2.4 GHz
p1060
V1 TB
p1061
tp1062
sV111100606873
p1063
(V14"
p1064
V2.0 GB
p1065
V2.0 GHz
p1066
VNOT INCLUDED
p1067
tp1068
sV171060713974
p1069
(V14"
p1070
V1.0 GB
p1071
V2.66 GHz
p1072
VNOT INCLUDED
p1073
tp1074
sV130932766230
p1075
(V15.6"
p1076
V6 GB
p1077
V2.26 GHz
p1078
V640 GB
p1079
tp1080
sV140997269246
p1081
(V12.1"
p1082
V2 GB
p1083
V1.83GHz
p1084
V160 GB
p1085
tp1086
sV111100726007
p1087
(V14"
p1088
V2.0 GB
p1089
V2.0 GHz
p1090
VNOT INCLUDED
p1091
tp1092
sV111088980458
p1093
(V15.6"
p1094
V8 GB
p1095
V1.50 GHz
p1096
V750 GB
p1097
tp1098
sV200933424223
p1099
(V12.5 touch
p1100
V4000
p1101
V1.7
p1102
V500 GB
p1103
tp1104
sV330938587197
p1105
(V12.5"
p1106
V4 GB
p1107
V2.6 GHz
p1108
V320 GB
p1109
tp1110
sV181141340454
p1111
(V14"
p1112
V4 GB
p1113
V2.20 GHz
p1114
V500 GB
p1115
tp1116
sV321138502651
p1117
(V15.6"
p1118
V4 GB
p1119
V3.20 GHz
p1120
V500 GB
p1121
tp1122
sV160904435560
p1123
(V14.1"
p1124
V2 GB
p1125
V2.20 GHz
p1126
V80 GB
p1127
tp1128
sV350817505453
p1129
(V15.6"
p1130
V6 GB
p1131
V1.7 GHz
p1132
V750 GB
p1133
tp1134
sV200921755073
p1135
(V14"
p1136
V4 GB
p1137
V1.5 GHz
p1138
V500 GB
p1139
tp1140
sV181155052045
p1141
(V15.6"
p1142
V6 GB
p1143
V2.00 GHz
p1144
V750 GB
p1145
tp1146
sV290929895661
p1147
(V12.5"
p1148
V4 GB
p1149
V1.7 GHz
p1150
V500 GB
p1151
tp1152
sV380659558047
p1153
(V15.6"
p1154
V8 GB
p1155
V2.4 GHz
p1156
V750 GB
p1157
tp1158
sV251288300851
p1159
(V15.6"
p1160
V8 GB
p1161
V1.65 GHz
p1162
V320 GB
p1163
tp1164
sV360679107094
p1165
(V14"
p1166
V2.0 GB
p1167
V2.5 GHz
p1168
VNOT INCLUDED
p1169
tp1170
sV360679220573
p1171
(V15.4"
p1172
V2.0 GB
p1173
V2.0 GHz
p1174
VNOT INCLUDED
p1175
tp1176
sV251289809354
p1177
(V8.9
p1178
V2 GB
p1179
V1.20 GHz
p1180
V30 GB
p1181
tp1182
sV121125373763
p1183
(V14.1"
p1184
V1.24 GB
p1185
V1.50 GHz
p1186
V160 GB
p1187
tp1188
sV271211861567
p1189
(V17.3"
p1190
V4GB
p1191
V2.5GHz
p1192
V500GB
p1193
tp1194
sV360679128258
p1195
(V14.1"
p1196
V4 GB
p1197
V2.53 GHz
p1198
V160 GB
p1199
tp1200
sV300922245881
p1201
(V14"
p1202
V4 GB
p1203
V2.7 GHz
p1204
V500 GB
p1205
tp1206
sV161007319542
p1207
(V14.1"
p1208
V1 GB
p1209
V2 GHz
p1210
V80 GB
p1211
tp1212
sV190855986680
p1213
(V15.4"
p1214
V1.5GB
p1215
V1.5GHZ
p1216
V60GB
p1217
tp1218
sV130931313598
p1219
(V14"
p1220
V6 GB
p1221
V2.40 GHz
p1222
V500 GB
p1223
tp1224
sV171062348744
p1225
(V17.3"
p1226
V4 GB
p1227
V2.2 GHz
p1228
V640 GB
p1229
tp1230
sV300921177721
p1231
(V14"
p1232
V8 GB
p1233
V2.8 GHz
p1234
V750 GB
p1235
tp1236
sV271225145883
p1237
(V17.3"
p1238
V32 GB
p1239
V3.10 GHz
p1240
V2 TB
p1241
tp1242
sV290933813597
p1243
(V15"
p1244
V8 GB
p1245
V1.7 GHz
p1246
V128 GB
p1247
tp1248
sV121129464592
p1249
(V15.4"
p1250
V512 MB
p1251
V1.6 GHz
p1252
V80 GB
p1253
tp1254
sV321147627848
p1255
(V13.3"
p1256
V4 GB
p1257
V1.9 GHz
p1258
V256 GB
p1259
tp1260
sV221201773447
p1261
(V12.5"
p1262
V4 GB
p1263
V1.70 / 2.60 GHz
p1264
V500 GB HDD with 24 GB SSD (Hybrid Drive)
p1265
tp1266
sV190859316044
p1267
(V11.6"
p1268
V4 GB
p1269
V1.73 GHz
p1270
V320 GB
p1271
tp1272
sV300916321608
p1273
(V13.3"
p1274
V4 GB
p1275
V2.40 GHz
p1276
V80 GB
p1277
tp1278
sV151067489112
p1279
(V15.4"
p1280
V1 GB
p1281
V1.66 GHz
p1282
V60GB
p1283
tp1284
sV251286700435
p1285
(V11.6"
p1286
V6GB
p1287
V1.7GHz
p1288
V500GB
p1289
tp1290
sV181160520305
p1291
(V12.1"
p1292
V2 GB
p1293
V1.80 GHz
p1294
V60 GB
p1295
tp1296
sV151067639728
p1297
(V14"
p1298
V4 GB
p1299
V1.70 GHz
p1300
V128 GB
p1301
tp1302
sV271222090568
p1303
(V13.3"
p1304
V4 GB
p1305
V1.7 GHz
p1306
V128 GB
p1307
tp1308
sV130932966730
p1309
(V15.6"
p1310
V2 GB
p1311
V2.2 GHz
p1312
V250 GB
p1313
tp1314
sV321142170202
p1315
(V10.1"
p1316
V1 GB
p1317
V1.66 GHz
p1318
V250 GB
p1319
tp1320
sV370837084404
p1321
(V11.6"
p1322
V4 GB
p1323
V1.7 GHz
p1324
V128 GB
p1325
tp1326
sV390614181504
p1327
(V14"
p1328
V4000
p1329
V2.8 GHz
p1330
V160GB
p1331
tp1332
sV171060834293
p1333
(V14"
p1334
V2.0 GB
p1335
V2.2 GHz
p1336
VNOT INCLUDED
p1337
tp1338
sV261232913998
p1339
(V15.6"
p1340
V32 GB
p1341
V3.7GHz
p1342
V500 GB
p1343
tp1344
sV360679211571
p1345
(V14.1"
p1346
V4 GB
p1347
V2.66 GHz
p1348
V160 GB
p1349
tp1350
sV321145721894
p1351
(V14"
p1352
V6 GB
p1353
V2.60 GHz
p1354
V500 GB + 32 GB
p1355
tp1356
sV200925234583
p1357
(V15.6"
p1358
V4 GB
p1359
V1.3 GHz
p1360
V320 GB
p1361
tp1362
sV171062054912
p1363
(V15.4"
p1364
V2 GB
p1365
V2.00 GHz
p1366
V120 GB
p1367
tp1368
sV251269876270
p1369
(V17.3"
p1370
V16 GB
p1371
V2.10 GHz
p1372
V500 GB
p1373
tp1374
sV261230429571
p1375
(V15.4"
p1376
V2 GB
p1377
V2.5 GHz
p1378
V250 GB
p1379
tp1380
sV200935992389
p1381
(V7"
p1382
V1gb
p1383
V1.20 GHz
p1384
V4gb
p1385
tp1386
sV171060850138
p1387
(V11.6
p1388
V2 GB
p1389
V1.73 GHz
p1390
V16 GB
p1391
tp1392
sV130928600471
p1393
(V15.6"
p1394
V4 GB
p1395
V2.1 GHz
p1396
V500 GB
p1397
tp1398
sV171055627636
p1399
(V14.1"
p1400
V4 GB
p1401
V2.53 GHz
p1402
V320 GB
p1403
tp1404
sV290934266080
p1405
(V17.3"
p1406
V4 GB
p1407
V2.53 GHz
p1408
V500 GB
p1409
tp1410
sV300922760540
p1411
(V12.5
p1412
V8 GB
p1413
V3.0 GHz
p1414
V500 GB
p1415
tp1416
sV190752515528
p1417
(V14.0"
p1418
V4 GB
p1419
V2.40 GHz
p1420
V320 GB
p1421
tp1422
sV390614296111
p1423
(V14.1"
p1424
V2 GB
p1425
V2.53 GHz
p1426
V160 GB
p1427
tp1428
sV271226345020
p1429
(V15.6"
p1430
V4 GB
p1431
V2.53 GHz
p1432
V500 GB
p1433
tp1434
sV190859072075
p1435
(V10.1
p1436
V1 GB
p1437
V1.66 GHz
p1438
V120 GB
p1439
tp1440
sV380662182009
p1441
(V14.1"
p1442
V3 GB
p1443
V2.40 GHz
p1444
V250 GB
p1445
tp1446
sV251283006707
p1447
(V14.1"
p1448
V1 GB
p1449
V1.8 GHz
p1450
V80GB
p1451
tp1452
sV300922219525
p1453
(V14.1"
p1454
V1 GB
p1455
V1.66 GHz
p1456
V40 GB
p1457
tp1458
sV121127112853
p1459
(V15.6"
p1460
V6 GB
p1461
V3100
p1462
V750 GB
p1463
tp1464
sV161049211439
p1465
(V14.1"
p1466
V2 GB
p1467
V2.00 GHz
p1468
V80 GB
p1469
tp1470
sV261233877928
p1471
(V17"
p1472
V4 GB
p1473
V2.00 GHz
p1474
V160 GB 7200rpm SATA
p1475
tp1476
sV370838333476
p1477
(V14"
p1478
V4 GB
p1479
V2.53 GHz
p1480
V320 GB
p1481
tp1482
sV281123823297
p1483
(V15.6"
p1484
V4 GB
p1485
V1.4 GHz
p1486
V320 GB
p1487
tp1488
sV171062673188
p1489
(V14.1"
p1490
V1Gb
p1491
V2.0GHz
p1492
V80 GB
p1493
tp1494
sV251293101334
p1495
(V15"
p1496
V2 GB
p1497
V2.30 GHz
p1498
V250 GB
p1499
tp1500
sV360679140651
p1501
(V15.4"
p1502
V2.0 GB
p1503
V2.1 GHz
p1504
VNOT INCLUDED
p1505
tp1506
sV181146310497
p1507
(V17.3"
p1508
V4 GB
p1509
V2.40 GHz
p1510
V500 GB
p1511
tp1512
sV111037176344
p1513
(V14"
p1514
V8GB DDR3
p1515
V2.00 GHz
p1516
V240GB SSD
p1517
tp1518
sV360679239241
p1519
(V14.1"
p1520
V4 GB
p1521
V2.66 GHz
p1522
V250 GB
p1523
tp1524
sV290925925555
p1525
(V15.6"
p1526
V4 GB
p1527
V2.40 GHz
p1528
V500 GB
p1529
tp1530
sV310691398539
p1531
(V14.1"
p1532
V2 GB
p1533
V2.40 GHz
p1534
V160 GB
p1535
tp1536
sV330940912672
p1537
(V15.4"
p1538
V2 GB
p1539
V2.00 GHz
p1540
V80gb
p1541
tp1542
sV380662187932
p1543
(V14.1"
p1544
V4 GB
p1545
V2.40 GHz
p1546
V160 GB
p1547
tp1548
sV390612674385
p1549
(V14.1"
p1550
V4 GB
p1551
V1.80 GHz
p1552
V250GB
p1553
tp1554
sV271226215604
p1555
(V15.6"
p1556
V6 GB
p1557
V2.40 GHz
p1558
V500 GB
p1559
tp1560
sV181161691048
p1561
(V14"
p1562
V4 GB
p1563
V2.30 GHz
p1564
V128 GB
p1565
tp1566
sV290839982574
p1567
(V11.6"
p1568
V2 GB
p1569
V1.1GHz
p1570
V320 GB
p1571
tp1572
sV171060773922
p1573
(V15.4"
p1574
V2.0 GB
p1575
V2.1 GHz
p1576
VNOT INCLUDED
p1577
tp1578
sV130933001122
p1579
(V15.6
p1580
V2 GB
p1581
V1.73 GHz
p1582
V320 GB
p1583
tp1584
sV251293080965
p1585
(V15.6"
p1586
V4 GB
p1587
V1.3 GHz
p1588
V500 GB
p1589
tp1590
sV261233843920
p1591
(V15.6"
p1592
V8 GB
p1593
V1.9 GHz
p1594
V640 GB
p1595
tp1596
sV230999470074
p1597
(V17.3"
p1598
V4 GB
p1599
V2.40 GHz
p1600
V500 GB
p1601
tp1602
sV380662145535
p1603
(V14.1"
p1604
V4 GB
p1605
V2.40 GHz
p1606
V250 GB
p1607
tp1608
sV181159588113
p1609
(V14"
p1610
V6 GB
p1611
V1.8 GHz
p1612
V500 GB
p1613
tp1614
sV380662883916
p1615
(V12.1"
p1616
V4 GB
p1617
V2.13 GHz
p1618
V500 GB
p1619
tp1620
sV300921568406
p1621
(V12.1"
p1622
V2 GB
p1623
V2.00 GHz
p1624
V160 GB
p1625
tp1626
sV360676745285
p1627
(V16"
p1628
V3 GB
p1629
V2 GHz
p1630
V250 GB
p1631
tp1632
sV370834670589
p1633
(V15.6"
p1634
V8 GB
p1635
V2.30 GHz
p1636
V500 GB
p1637
tp1638
sV290931383508
p1639
(V15
p1640
V8 GB
p1641
V2.66 GHz
p1642
V250 GB
p1643
tp1644
sV380662157962
p1645
(V12.1"
p1646
V3 GB
p1647
V1.40 GHz
p1648
V64 GB
p1649
tp1650
sV161050175813
p1651
(V15.6"
p1652
V4 GB
p1653
V1.4 GHz
p1654
V640 GB
p1655
tp1656
sV370837538618
p1657
(V15.6"
p1658
V2 GB
p1659
V2.40 GHz
p1660
V250 GB
p1661
tp1662
sV151038178153
p1663
(V14"
p1664
V6 GB
p1665
V1.50 GHz
p1666
V500 GB
p1667
tp1668
sV271225161176
p1669
(V10.1"
p1670
VSupport 2 GB
p1671
V1.66 GHz
p1672
VSupport 320 GB
p1673
tp1674
sV140997043892
p1675
(V17.3"
p1676
V8 GB
p1677
V2.60 GHz
p1678
V1 TB
p1679
tp1680
sV200879363469
p1681
(V15.6"
p1682
V8 GB
p1683
V2.2 GHz
p1684
V1 TB
p1685
tp1686
sV360679133350
p1687
(V15.4"
p1688
V2.0 GB
p1689
V2.0 GHz
p1690
VNOT INCLUDED
p1691
tp1692
sV380659587223
p1693
(V14.5"
p1694
V6 GB
p1695
V2.4 GHz
p1696
V750 GB
p1697
tp1698
sV251292112235
p1699
(V15.6"
p1700
V4.00GB
p1701
V1.73 GHz
p1702
V288 GB
p1703
tp1704
sV360679160405
p1705
(V14"
p1706
V2.0 GB
p1707
V2.0 GHz
p1708
VNOT INCLUDED
p1709
tp1710
sV171030412979
p1711
(V15.4"
p1712
V2 GB
p1713
V2.00 GHz
p1714
V60 GB
p1715
tp1716
sV290933770166
p1717
(V14"
p1718
V4 GB
p1719
V1.8 GHz
p1720
V500 GB
p1721
tp1722
sV130931253935
p1723
(V15.6"
p1724
V6 GB
p1725
V2.3 GHz
p1726
V500 GB
p1727
tp1728
sV161050154826
p1729
(V15.4"
p1730
V2 GB
p1731
V1.80 GHz
p1732
V120 GB
p1733
tp1734
sV230999411248
p1735
(V15.4"
p1736
V2 GB
p1737
V1.83 GHz
p1738
V80 GB
p1739
tp1740
sV360679154197
p1741
(V15.4"
p1742
V2 GB
p1743
V3.06 GHz
p1744
V160 GB
p1745
tp1746
sV221234115117
p1747
(V15.6"
p1748
V4 GB
p1749
V2.66 GHz
p1750
V320 GB
p1751
tp1752
sV221233322873
p1753
(V14"
p1754
V4 GB
p1755
V2.40 GHz
p1756
V250 GB
p1757
tp1758
sV380661696480
p1759
(V14.1"
p1760
V2 GB DDR2 SDRAM (2 x 1GB DIMM)
p1761
V1.73 GHz
p1762
V30 GB
p1763
tp1764
sV370832141305
p1765
(V13.3"
p1766
V4 GB
p1767
V2.4 GHz
p1768
V750 GB
p1769
tp1770
sV261184778531
p1771
(V15.6"
p1772
V6GB
p1773
V1.5GHz
p1774
V500GB
p1775
tp1776
sV140999488114
p1777
(V15.6"
p1778
V2 GB
p1779
V2.26 GHz
p1780
V320 GB
p1781
tp1782
sV111097041149
p1783
(V15.4"
p1784
V2.0 GB
p1785
V2.2 GHz
p1786
VNOT INCLUDED
p1787
tp1788
sV261229700447
p1789
(V15"
p1790
V1 GB
p1791
V2.20GHz
p1792
V80GB
p1793
tp1794
sV221240769030
p1795
(V17"
p1796
V2 GB
p1797
V1.83
p1798
V120 GB
p1799
tp1800
sV271221494631
p1801
(V14"
p1802
V4 GB
p1803
V2.1 GHz
p1804
V500 GB
p1805
tp1806
sV360679224592
p1807
(V13.3"
p1808
V2 GB
p1809
V2.40 GHz
p1810
V160 GB
p1811
tp1812
sV161050396090
p1813
(V14"
p1814
V8 GB
p1815
V1.7 GHz
p1816
V500 GB
p1817
tp1818
sV370832289812
p1819
(V15.6"
p1820
V4 GB
p1821
V2.4 GHz
p1822
V500 GB
p1823
tp1824
sV190855944683
p1825
(V10.1"
p1826
V1 GB
p1827
V1.6 GHz
p1828
V320 GB
p1829
tp1830
sV181161938032
p1831
(V17.3"
p1832
V8 GB
p1833
V2.66 GHz
p1834
V750 GB
p1835
tp1836
sV350814815014
p1837
(V14.1"
p1838
V4 GB
p1839
V2.40 GHz
p1840
V80 GB
p1841
tp1842
sV121126833328
p1843
(V16"
p1844
V3 GB
p1845
V2 GHz
p1846
V320 GB
p1847
tp1848
sV290933471449
p1849
(V12
p1850
V2.0 GB
p1851
V1.8 GHz
p1852
V160 GB
p1853
tp1854
sV221243595036
p1855
(V15.5"
p1856
V8 GB
p1857
V2 GHz
p1858
V1 TB
p1859
tp1860
sV181161644196
p1861
(V14"
p1862
V2 GB
p1863
V2.50 GHz
p1864
VNone
p1865
tp1866
sV221243283849
p1867
(V15.6"
p1868
V6 GB
p1869
V2.50 GHz
p1870
V500 GB
p1871
tp1872
sV360679088843
p1873
(V14"
p1874
V1.0 GB
p1875
V2.66 GHz
p1876
VNOT INCLUDED
p1877
tp1878
sV370834680641
p1879
(V11.6"
p1880
V2 GB
p1881
V1.7 GHz
p1882
V16 GB
p1883
tp1884
sV251291746648
p1885
(V15.6"
p1886
V6GB
p1887
V1.5GHz
p1888
V750GB
p1889
tp1890
sV321143695633
p1891
(V15.4
p1892
V4 GB
p1893
V2.00 GHz
p1894
V320 GB
p1895
tp1896
sV111097052378
p1897
(V12.1"
p1898
V2 GB
p1899
V1.66 GHz
p1900
V16 GB
p1901
tp1902
sV251289950022
p1903
(VN/A
p1904
V-
p1905
VD510 / 1.66 GHz ( Dual-Core )
p1906
V500 GB
p1907
tp1908
sV300922746777
p1909
(V17.3"
p1910
V6 GB
p1911
V2.7 GHz
p1912
V640 GB
p1913
tp1914
sV300922746776
p1915
(V17.3"
p1916
V6 GB
p1917
V2.7 GHz
p1918
V640 GB
p1919
tp1920
sV181161721390
p1921
(V14.1"
p1922
V2 GB
p1923
V2.53 GHz
p1924
V160 GB
p1925
tp1926
sV121108138603
p1927
(V14"
p1928
V4 GB
p1929
V2.7 GHz
p1930
V500 GB
p1931
tp1932
sV300922746772
p1933
(V15.6"
p1934
V4 GB
p1935
V2.60 GHz to 3.2GHz
p1936
V750 GB
p1937
tp1938
sV390559909374
p1939
(V17.3"
p1940
V8 GB
p1941
V2.10 GHz
p1942
V1 TB
p1943
tp1944
sV121104515062
p1945
(V14"
p1946
V8 GB
p1947
V2.6 - 3.3 GHz
p1948
V320 GB
p1949
tp1950
sV400425483873
p1951
(V14.1"
p1952
V2 GB
p1953
V2.26 GHz
p1954
V160 GB
p1955
tp1956
sV130803554691
p1957
(V7"
p1958
V1 GB
p1959
V1.20 GHz
p1960
V4 GB
p1961
tp1962
sV290935053134
p1963
(V14
p1964
V6 GB
p1965
V2.50 GHz
p1966
V500 GB
p1967
tp1968
sV290935005370
p1969
(V15.6"
p1970
V6 GB
p1971
V3.10 GHz
p1972
V640 GB
p1973
tp1974
sV141001019395
p1975
(V13.3"
p1976
V4 GB
p1977
V1.6 GHz
p1978
V320 GB
p1979
tp1980
sV221243462009
p1981
(V14.1"
p1982
V4 GB
p1983
V2.20 GHz
p1984
V160 GB
p1985
tp1986
sV121117845404
p1987
(V17.3"
p1988
V8 GB
p1989
V3.20 GHz
p1990
V1 TB
p1991
tp1992
sV171062607693
p1993
(V14.1"
p1994
V2 GB
p1995
V2.0 GHz
p1996
V80 GB
p1997
tp1998
sV251292216575
p1999
(V15.6"
p2000
V4 GB
p2001
V1.7 GHz
p2002
V320 GB
p2003
tp2004
sV161046146684
p2005
(V15.6"
p2006
V4 GB
p2007
V2.20 GHz
p2008
V500 GB
p2009
tp2010
sV231001377584
p2011
(V12.1"
p2012
V2GB
p2013
V1.40 GHz
p2014
V80GB
p2015
tp2016
sV271225895663
p2017
(V15.6"
p2018
V8GB
p2019
V1.7GHz
p2020
V750GB
p2021
tp2022
sV350817520259
p2023
(V11.6"
p2024
V2 GB
p2025
V1.7 GHz
p2026
V16 GB
p2027
tp2028
sV130932730120
p2029
(V15.6"
p2030
V6 GB
p2031
V1.73 GHz
p2032
V750 GB
p2033
tp2034
sV360679180552
p2035
(V14.1"
p2036
V4 GB
p2037
V2.66 GHz
p2038
V160 GB
p2039
tp2040
sV370838887099
p2041
(V15.6"
p2042
V6 GB
p2043
V2.20 GHz
p2044
V640 GB
p2045
tp2046
sV251293310749
p2047
(V14"
p2048
V8 GB
p2049
V3.40 GHz
p2050
V1 TB
p2051
tp2052
sV271226396843
p2053
(V15.6"
p2054
V8 GB
p2055
V2.40 GHz
p2056
V1 TB
p2057
tp2058
sV370838088032
p2059
(V14.1"
p2060
V4 GB
p2061
V2.8 GHz
p2062
V160 GB
p2063
tp2064
sV271214607202
p2065
(V12.5"
p2066
V4 GB
p2067
V1.7 GHz
p2068
V500 GB
p2069
tp2070
sV130932523968
p2071
(V17.3"
p2072
V6 GB
p2073
V2.5 GHz
p2074
V750 GB
p2075
tp2076
sV181161417615
p2077
(V17.3"
p2078
V8 GB
p2079
V3.40 GHz
p2080
V1 TB
p2081
tp2082
sV310691012127
p2083
(V14.1"
p2084
V4 GB
p2085
V2.40 GHz
p2086
V80 GB
p2087
tp2088
sV360676670671
p2089
(V11.6"
p2090
V2 GB
p2091
V1.7 GHz
p2092
V16 GB
p2093
tp2094
sV221242709827
p2095
(V15.6"
p2096
V6 GB
p2097
V1.80 GHz
p2098
V750 GB
p2099
tp2100
sV190858863978
p2101
(V12"
p2102
V5GB
p2103
V1.6
p2104
V128 GB
p2105
tp2106
sV261233279707
p2107
(V15.6"
p2108
V4 GB
p2109
V2.2 GHz
p2110
V500 GB
p2111
tp2112
sV360632230115
p2113
(V15.6"
p2114
V6 GB
p2115
V1.7 GHz
p2116
V500 GB
p2117
tp2118
sV380662228876
p2119
(V14.1"
p2120
V4 GB
p2121
V2.66 GHz
p2122
V250 GB
p2123
tp2124
sV111094889818
p2125
(V10.1"
p2126
V2 GB
p2127
V1.6GHz
p2128
V160 GB
p2129
tp2130
sV221243625976
p2131
(V13.3"
p2132
V4 GB
p2133
V2.40 GHz
p2134
V320 GB
p2135
tp2136
sV271224823168
p2137
(V15.6"
p2138
V4 GB
p2139
V2.40 GHz
p2140
V500 GB
p2141
tp2142
sV330943678086
p2143
(V14.1"
p2144
V4 GB
p2145
V2.40 GHz
p2146
V160 GB
p2147
tp2148
sV330941921258
p2149
(V15.4"
p2150
V8 GB
p2151
V2.80 GHz
p2152
V640 GB
p2153
tp2154
sV200936284523
p2155
(V15.6"
p2156
V4 GB
p2157
V2.60 GHz
p2158
V500 GB
p2159
tp2160
sV271224988501
p2161
(V18.4"
p2162
V4 GB
p2163
V2.0GHZ CORE 2 QUAD
p2164
V320 GB
p2165
tp2166
sV290920723082
p2167
(V17.3"
p2168
V6 GB
p2169
V2.4 GHz
p2170
V750 GB
p2171
tp2172
sV390613634598
p2173
(V14.1"
p2174
V4 GB
p2175
V2.8 GHz
p2176
V320 GB
p2177
tp2178
sV290931075989
p2179
(V17.3"
p2180
V6 GB
p2181
V2.70 GHz - 3.20GHz with Turbo Boost
p2182
V640 GB
p2183
tp2184
sV261233840366
p2185
(V17.3"
p2186
V8 GB
p2187
V2.40 GHz
p2188
V1 TB
p2189
tp2190
sV321144804585
p2191
(V11.6"
p2192
V2 GB
p2193
V1.1 GHz
p2194
V320 GB
p2195
tp2196
sV300922748732
p2197
(V14.1"
p2198
V3 GB
p2199
V1.66 GHz
p2200
V500 GB
p2201
tp2202
sV221241895220
p2203
(V14.1"
p2204
V4 GB
p2205
V2.50 GHz
p2206
V160 GB
p2207
tp2208
sV271223443638
p2209
(V17.3"
p2210
V6 GB
p2211
V2.7 GHz
p2212
V640 GB
p2213
tp2214
sV300920665669
p2215
(V15.6"
p2216
V2 GB
p2217
V2.2 GHz
p2218
V250 GB
p2219
tp2220
sV261229338056
p2221
(V15.6"
p2222
V16 GB
p2223
V3.20 GHz
p2224
V1.0TB + 128GB SSD
p2225
tp2226
sV171060922702
p2227
(V14.1"
p2228
V2 GB
p2229
V1.86 GHz
p2230
V80 GB
p2231
tp2232
sV171061128299
p2233
(V14.1"
p2234
V512 MB
p2235
V1.40 GHz
p2236
V20GB
p2237
tp2238
sV290935057872
p2239
(V15.6"
p2240
V6 GB
p2241
V1.9 GHz
p2242
V500 GB + 32GB SSD
p2243
tp2244
sV310691216525
p2245
(V14.1"
p2246
V2 GB
p2247
V2.00 GHz
p2248
V80 GB
p2249
tp2250
sV161026069097
p2251
(V14.1"
p2252
V2 GB
p2253
V2.20 GHz
p2254
V640 GB
p2255
tp2256
sV151067754454
p2257
(V14.1"
p2258
V4 GB
p2259
V2.53 GHz
p2260
V160 GB
p2261
tp2262
sV111101722450
p2263
(V13.3"
p2264
V4 GB
p2265
V2.5 GHz
p2266
V320GB
p2267
tp2268
sV171062577978
p2269
(V14.1"
p2270
V2 GB
p2271
V1.66 GHz
p2272
V40 GB
p2273
tp2274
sV151067465378
p2275
(V14.1"
p2276
V2 GB
p2277
V2.40 GHz
p2278
V160 GB
p2279
tp2280
sV281121605252
p2281
(V15.6"
p2282
V2 GB
p2283
V2.1 GHz
p2284
V250 GB
p2285
tp2286
sV251286702711
p2287
(V14.1"
p2288
V4 GB
p2289
V1.66 GHz
p2290
V80 GB
p2291
tp2292
sV171060818307
p2293
(V12.1"
p2294
V1.5 GB
p2295
V2.00 GHz
p2296
V60 GB
p2297
tp2298
sV121125423740
p2299
(V14.1"
p2300
V4.096 GB
p2301
V2.00 GHz
p2302
V250GB
p2303
tp2304
sV190844758500
p2305
(V13.3"
p2306
V4 GB
p2307
V1.70 / 2.60 GHz
p2308
V128 GB SSD
p2309
tp2310
sV310691194603
p2311
(V14.1"
p2312
V2 GB
p2313
V2.00 GHz
p2314
V80 GB
p2315
tp2316
sV290931364400
p2317
(V15.6"
p2318
V2 GB
p2319
V1 GHz
p2320
V320 GB
p2321
tp2322
sV300922673529
p2323
(V15.6"
p2324
V4 GB
p2325
V2.53 GHz
p2326
V500 GB
p2327
tp2328
sV271225304947
p2329
(V14"
p2330
V4 GB
p2331
V1.4 GHz
p2332
V500 GB
p2333
tp2334
sV300922661287
p2335
(V15.4"
p2336
V3 GB
p2337
V2.40 GHz
p2338
V250 GB
p2339
tp2340
sV330943223864
p2341
(V15.6"
p2342
V3 GB
p2343
V2.2 GHz
p2344
V320 GB
p2345
tp2346
sV251293171061
p2347
(V10.1"
p2348
V1 GB
p2349
V1.6 GHz
p2350
V160
p2351
tp2352
sV121126769755
p2353
(V17.1"
p2354
V2 GB
p2355
V1.86 GHz
p2356
V160 GB
p2357
tp2358
sV310691156740
p2359
(V14.1"
p2360
V4 GB
p2361
V2.53 GHz
p2362
V80 GB
p2363
tp2364
sV190851227623
p2365
(V15.6"
p2366
V8 GB
p2367
V2.90 GHz
p2368
V1 TB
p2369
tp2370
sV390588635044
p2371
(V14"
p2372
V4 GB
p2373
V2.60 GHz
p2374
V128 GB SSD
p2375
tp2376
sV181160253512
p2377
(V15.6"
p2378
V8 GB
p2379
V1.50 GHz
p2380
V600GB
p2381
tp2382
sV200935559596
p2383
(V13.3"
p2384
V2 GB
p2385
V2.53 GHz
p2386
V160 GB
p2387
tp2388
sV390612551854
p2389
(V15"
p2390
V256 MB
p2391
V2.40 GHz
p2392
V30 GB
p2393
tp2394
sV171032969380
p2395
(V15.6"
p2396
V4 GB
p2397
V1.66 GHz
p2398
V320 GB
p2399
tp2400
sV360679132227
p2401
(V15.4"
p2402
V2.0 GB
p2403
V2.0 GHz
p2404
VNOT INCLUDED
p2405
tp2406
sV111100645868
p2407
(V15.4"
p2408
V2.0 GB
p2409
V2.0 GHz
p2410
VNOT INCLUDED
p2411
tp2412
sV271208234557
p2413
(V15.6"
p2414
V4 GB
p2415
V2.1 GHz
p2416
V500 GB
p2417
tp2418
sV281106014152
p2419
(V15.6"
p2420
V4 GB
p2421
V1.30GHz
p2422
V320 GB
p2423
tp2424
sV161048890326
p2425
(V14.1"
p2426
V2 GB
p2427
V2.20 GHz
p2428
V80 GB
p2429
tp2430
sV181161877935
p2431
(V15.4"
p2432
V1 GB
p2433
V1.66 GHz
p2434
V60 GB
p2435
tp2436
sV281123207227
p2437
(V13.3"
p2438
V4 GB
p2439
V1.7 GHz
p2440
V128 GB
p2441
tp2442
sV251290920301
p2443
(V10.1"
p2444
V1 GB
p2445
V1.66 GHz
p2446
V250 GB
p2447
tp2448
sV290903729649
p2449
(V15.4"
p2450
V3 GB
p2451
V2.0 GHz
p2452
V80 GB
p2453
tp2454
sV171060772486
p2455
(V15.4"
p2456
V2.0 GB
p2457
V2.1 GHz
p2458
VNOT INCLUDED
p2459
tp2460
sV251289632615
p2461
(V14.1"
p2462
V2 GB
p2463
V2.40 GHz
p2464
V160 GB
p2465
tp2466
sV321146061666
p2467
(V15.6"
p2468
V6 GB
p2469
V1.80 GHz
p2470
V500 GB
p2471
tp2472
sV140999213072
p2473
(V15.6"
p2474
V8 GB
p2475
V2.40 GHz
p2476
V320 GB
p2477
tp2478
sV221242472472
p2479
(V14"
p2480
V2 GB
p2481
V2.00 GHz
p2482
V80 GB
p2483
tp2484
sV370837391097
p2485
(V15.6"
p2486
V4 GB
p2487
V1.7 GHz
p2488
V128 GB
p2489
tp2490
sV350728412841
p2491
(V15.6"
p2492
V4 GB
p2493
V1.30GHz
p2494
V320 GB
p2495
tp2496
sV171060761539
p2497
(V14"
p2498
V2.0 GB
p2499
V2.0 GHz
p2500
VNOT INCLUDED
p2501
tp2502
sV121126794416
p2503
(V15.4"
p2504
V3 GB
p2505
V2 GHz
p2506
V250 GB
p2507
tp2508
sV380662195023
p2509
(V15.4"
p2510
V8 GB
p2511
V2.80 GHz
p2512
V250 GB
p2513
tp2514
sV121107349429
p2515
(V15.6"
p2516
V8 GB
p2517
V2.90 - 3.60 GHz
p2518
V1 TB
p2519
tp2520
sV281088882417
p2521
(V15.6"
p2522
V4 GB
p2523
V2.30 GHz
p2524
V320 GB
p2525
tp2526
sV181152416109
p2527
(V13.3"
p2528
V4 GB
p2529
V1.6 GHz
p2530
V500 GB
p2531
tp2532
sV390611228100
p2533
(V11.6"
p2534
V2 GB
p2535
V1.7 GHz
p2536
V16 GB
p2537
tp2538
sV161046137179
p2539
(V15.4"
p2540
V2 GB
p2541
V1.80 GHz
p2542
V147 GB
p2543
tp2544
sV321146279613
p2545
(V15.6"
p2546
V6 GB
p2547
V2.60 GHz
p2548
V500 GB
p2549
tp2550
sV261223117503
p2551
(V14"
p2552
V4 GB
p2553
V1.5 GHz
p2554
V500 GB
p2555
tp2556
sV221243620996
p2557
(V13.3"
p2558
V4 GB
p2559
V2.40 GHz
p2560
V320 GB
p2561
tp2562
sV271212647271
p2563
(V15.6"
p2564
V4 GB
p2565
V1.3 GHz
p2566
V320 GB
p2567
tp2568
sV271222993897
p2569
(V19
p2570
V16 GB
p2571
V2.20 GHz
p2572
V750 GB
p2573
tp2574
sV121126830347
p2575
(V10
p2576
V1 GB
p2577
V1.66 GHz
p2578
V256 GB
p2579
tp2580
sV271222735673
p2581
(V17.3"
p2582
V16 GB
p2583
V2.3 GHz
p2584
V750 GB
p2585
tp2586
sV121130546145
p2587
(V14"
p2588
V6 GB
p2589
V1.90 GHz
p2590
V500 GB
p2591
tp2592
sV360679156562
p2593
(V14.1"
p2594
V4 GB
p2595
V2.40 GHz
p2596
V100 GB
p2597
tp2598
sV360679249330
p2599
(V14.1"
p2600
V4 GB
p2601
V2.66 GHz
p2602
V250 GB
p2603
tp2604
sV290931362069
p2605
(V15.6"
p2606
V4 GB
p2607
V2.1 GHz
p2608
V500 GB
p2609
tp2610
sV141001147110
p2611
(V14"
p2612
V8 GB
p2613
V3.2 Ghz Max Turbo
p2614
V256 GB SSD
p2615
tp2616
sV121129155281
p2617
(V15.6"
p2618
V2 GB
p2619
V2.2 GHz
p2620
V250 GB
p2621
tp2622
sV171062367323
p2623
(V14"
p2624
V6 GB
p2625
V2.30 GHz
p2626
V750 GB
p2627
tp2628
sV161050576254
p2629
(V14.1"
p2630
V2 GB
p2631
V2.4 GHz
p2632
V160 GB
p2633
tp2634
sV281121490741
p2635
(V14
p2636
V1 GB
p2637
V1.6 GHz
p2638
V20 GB
p2639
tp2640
sV290934761215
p2641
(V15.6"
p2642
V6 GB
p2643
V2.4 GHz
p2644
V640 GB
p2645
tp2646
sV111100854203
p2647
(V15.6"
p2648
V6 GB
p2649
V2.4 GHz
p2650
V500 GB
p2651
tp2652
sV231002629456
p2653
(V14.1
p2654
V2 GB
p2655
V2.20 GHz
p2656
V160 GB
p2657
tp2658
sV111100578004
p2659
(V15.4"
p2660
V2.0 GB
p2661
V2.4 GHz
p2662
VNOT INCLUDED
p2663
tp2664
sV231002027391
p2665
(V11.6"
p2666
V4 GB
p2667
V1.60Ghz
p2668
V128 GB
p2669
tp2670
sV310644847451
p2671
(V11.6"
p2672
V4 GB
p2673
V1.4 GHz
p2674
V500 GB
p2675
tp2676
sV400490702491
p2677
(V17.3"
p2678
V8 GB
p2679
V2.40 GHz
p2680
V1 TB
p2681
tp2682
sV281098645406
p2683
(V15.6"
p2684
V6 GB
p2685
V3.1 GHz
p2686
V750 GB
p2687
tp2688
sV261232613206
p2689
(V15.6"
p2690
V2 GB
p2691
V2.2 GHz
p2692
V250 GB
p2693
tp2694
sV261233643408
p2695
(V15.4"
p2696
V2 GB
p2697
V2.27 GHz
p2698
V80 GB
p2699
tp2700
sV121130516266
p2701
(V15.6"
p2702
V6 GB
p2703
V1.7 GHz
p2704
V750 GB
p2705
tp2706
sV360679159244
p2707
(V14.1"
p2708
V2 GB
p2709
V2.53 GHz
p2710
V100 GB
p2711
tp2712
sV121130558849
p2713
(V14"
p2714
V6 GB
p2715
V1.70 GHz
p2716
V500 GB
p2717
tp2718
sV321142324353
p2719
(V15.6"
p2720
V6 GB
p2721
V2.6 GHz
p2722
V750 GB
p2723
tp2724
sV330918055421
p2725
(V15.6"
p2726
V4 GB
p2727
V2.4 GHz
p2728
V500 GB
p2729
tp2730
sV231002807321
p2731
(V17.3"
p2732
V6 GB
p2733
V2.5 GHz
p2734
V750 GB
p2735
tp2736
sV190821032308
p2737
(V12.1"
p2738
V5 GB
p2739
V1.60 GHz
p2740
V128 GB
p2741
tp2742
sV200934264370
p2743
(V17"
p2744
V4 GB DDR3PC3 8500 CL7
p2745
V2.53 GHz
p2746
V300 GB 72K
p2747
tp2748
sV321147344441
p2749
(V15.6"
p2750
V4 GB
p2751
V1.6 GHz
p2752
V640 GB
p2753
tp2754
sV171062629288
p2755
(V14.1"
p2756
V2 GB
p2757
V2.00 GHz
p2758
V120 GB
p2759
tp2760
sV221243216685
p2761
(V14"
p2762
V8 GB
p2763
V2.2GHz (with Turbo Boost up to 3.2GHz)
p2764
V1 TB
p2765
tp2766
sV390613190503
p2767
(V13.3"
p2768
V4 GB
p2769
V2.7 GHz
p2770
V320 GB
p2771
tp2772
sV121130374167
p2773
(V15.6"
p2774
V8 GB
p2775
V2.00 GHz
p2776
V750 GB
p2777
tp2778
sV181160487221
p2779
(V15.6"
p2780
V4 GB
p2781
V2.30 GHz
p2782
V500 GB
p2783
tp2784
sV111100722900
p2785
(V14"
p2786
V2.0 GB
p2787
V2.2 GHz
p2788
VNOT INCLUDED
p2789
tp2790
sV261223135862
p2791
(V15.6"
p2792
V4 GB
p2793
V2.2 GHz
p2794
V500 GB
p2795
tp2796
sV271226574729
p2797
(V14.1"
p2798
V2 GB
p2799
V2.40 GHz
p2800
V160 GB
p2801
tp2802
sV130932552111
p2803
(V15.6"
p2804
V4 GB
p2805
V2.8 GHz
p2806
V500 GB
p2807
tp2808
sV360679278279
p2809
(V14.1"
p2810
V4 GB
p2811
V2.53 GHz
p2812
V320 GB
p2813
tp2814
sV171062070053
p2815
(V15.4"
p2816
V2 GB
p2817
V1.66 GHz
p2818
V60 GB
p2819
tp2820
sV360679186648
p2821
(V13.3"
p2822
V4 GB
p2823
V2.40 GHz
p2824
V160 GB
p2825
tp2826
sV271221499213
p2827
(V15.6"
p2828
V8 GB
p2829
V2.1 GHz
p2830
V750 GB
p2831
tp2832
sV130920219491
p2833
(V14"
p2834
V4 GB
p2835
V2.60 GHz
p2836
V500 GB
p2837
tp2838
sV171049310170
p2839
(V15.6"
p2840
V4 GB
p2841
V2.30 GHz
p2842
V320 GB
p2843
tp2844
sV321146183979
p2845
(V15.6"
p2846
V8 GB
p2847
V2.6 GHz
p2848
V500 GB
p2849
tp2850
sV121123200215
p2851
(V15.6"
p2852
V4 GB
p2853
V1.4 GHz
p2854
V500 GB
p2855
tp2856
sV281115080411
p2857
(V15.6"
p2858
V8 GB
p2859
V2.0 - 3.3 Ghz with Turbo Boost
p2860
V500GB + 32GB SSD
p2861
tp2862
sV261210458150
p2863
(V15.6"
p2864
V4 GB
p2865
V1.4 GHz
p2866
V500 GB
p2867
tp2868
sV111100823844
p2869
(V15.4"
p2870
V2.0 GB
p2871
V2.1 GHz
p2872
VNOT INCLUDED
p2873
tp2874
sV251257880849
p2875
(V13.3"
p2876
V4 GB
p2877
V1.5 GHz
p2878
V320 GB
p2879
tp2880
sV290880862696
p2881
(V11.6"
p2882
V4 GB
p2883
V1.4 GHz
p2884
V500 GB
p2885
tp2886
sV111100767869
p2887
(V14"
p2888
V2.0 GB
p2889
V2.0 GHz
p2890
VNOT INCLUDED
p2891
tp2892
sV200935557278
p2893
(V15"
p2894
V512 MB
p2895
V1.87 GHz
p2896
V40 GB
p2897
tp2898
sV380662167640
p2899
(V12.1"
p2900
V3 GB
p2901
V1.40 GHz
p2902
V128 GB
p2903
tp2904
sV281124771714
p2905
(V13.3"
p2906
V4GB DDR3
p2907
V1.60 GHz
p2908
V128 GB Solid State Drive
p2909
tp2910
sV300921602718
p2911
(V17.3"
p2912
V4 GB
p2913
V1.9 GHz
p2914
V500 GB
p2915
tp2916
sV111100004106
p2917
(V14"
p2918
V6 GB
p2919
V1.70 GHz
p2920
V750GB
p2921
tp2922
sV231001506915
p2923
(V13.3"
p2924
V2 GB
p2925
V2.26 GHz
p2926
V320 GB
p2927
tp2928
sV310650402258
p2929
(V14.1"
p2930
V2 GB
p2931
V2.4 GHz
p2932
V160 GB
p2933
tp2934
sV251278380470
p2935
(V17.3"
p2936
V4GB
p2937
V1.4GHz
p2938
V500GB
p2939
tp2940
sV140941508569
p2941
(V17.1"
p2942
V3 GB
p2943
V2.00 GHz
p2944
V320 GB
p2945
tp2946
sV161050423885
p2947
(V15.6"
p2948
V4 GB
p2949
V2.60 GHz
p2950
V500 GB
p2951
tp2952
sV190856021235
p2953
(V15"
p2954
V8 GB
p2955
V1.7 GHz
p2956
V128 GB
p2957
tp2958
sV271226574797
p2959
(V15"
p2960
V3 GB
p2961
V2.0 GHz
p2962
V100 GB
p2963
tp2964
sV121099743705
p2965
(V14"
p2966
V4GB
p2967
V1.80 GHz
p2968
V128GB SSD
p2969
tp2970
sV281106040565
p2971
(V15.6"
p2972
V8 GB
p2973
V2.40 GHz - 3.40GHz W/ Turbo Boost
p2974
V750 GB
p2975
tp2976
sV281106040564
p2977
(V15.6"
p2978
V4 GB
p2979
V1.40 GHz
p2980
V320 GB
p2981
tp2982
sV121130522778
p2983
(V14"
p2984
V4GB
p2985
V2.5GHz
p2986
V320GB
p2987
tp2988
sV350785974693
p2989
(V13.3"
p2990
V6GB Ram
p2991
V1.80 GHz
p2992
V500GB Hard Drive
p2993
tp2994
sV310691934283
p2995
(V14.1"
p2996
V2 GB
p2997
V2.20 GHz
p2998
V120 GB
p2999
tp3000
sV221240774845
p3001
(V15.6"
p3002
V4 GB
p3003
V2.10 GHz
p3004
V320 GB
p3005
tp3006
sV330942038327
p3007
(V13.3"
p3008
V3 GB
p3009
V2.40 GHz
p3010
V160 GB
p3011
tp3012
sV161046171349
p3013
(V16.4"
p3014
V4 GB
p3015
V2.20 GHz
p3016
V500 GB
p3017
tp3018
sV281123604648
p3019
(V15.6"
p3020
V8 GB
p3021
V2.40 GHz
p3022
V1TB
p3023
tp3024
sV130932854451
p3025
(V14.1"
p3026
V2 GB
p3027
V2.00 GHz
p3028
V80 GB
p3029
tp3030
sV251293270790
p3031
(V14"
p3032
V4 GB
p3033
V2.1 GHz
p3034
V500 GB
p3035
tp3036
sV281122451348
p3037
(V16"
p3038
V4 GB
p3039
V2.13 GHz
p3040
V500 GB
p3041
tp3042
sV350788803673
p3043
(V15.6"
p3044
V4 GB
p3045
V2.40 GHz
p3046
V750 GB
p3047
tp3048
sV181158148239
p3049
(V10.1"
p3050
V1 GB
p3051
V1.66 MHz
p3052
V250 GB
p3053
tp3054
sV161049816852
p3055
(V11.6"
p3056
V4 GB
p3057
V1.7 GHz
p3058
V128 GB
p3059
tp3060
sV261224508360
p3061
(V14"
p3062
V8 GB
p3063
V2.40 GHz
p3064
V750 GB
p3065
tp3066
sV121130518534
p3067
(V15.4"
p3068
V4 GB
p3069
V2.53 GHz
p3070
V250 GB
p3071
tp3072
sV310691141752
p3073
(V15.4"
p3074
V8 GB
p3075
V2.80 GHz
p3076
V250 GB
p3077
tp3078
sV161049189387
p3079
(V14.1"
p3080
V2 GB
p3081
V2.4 GHz
p3082
V160 GB
p3083
tp3084
sV190836549306
p3085
(V15.6"
p3086
V16 GB
p3087
V2.20 GHz
p3088
V1 TB HDD + 16GB Micro SSD
p3089
tp3090
sV380662165646
p3091
(V14.1"
p3092
V4 GB
p3093
V2.40 GHz
p3094
V160 GB
p3095
tp3096
sV360679117448
p3097
(V14"
p3098
V2.0 GB
p3099
V2.0 GHz
p3100
VNOT INCLUDED
p3101
tp3102
sV350799223920
p3103
(V15.6"
p3104
V4 GB
p3105
V2.70 GHz - 3.20Ghz w/ Turbo Boost
p3106
V640 GB
p3107
tp3108
sV200935542040
p3109
(V17"
p3110
V8 GB
p3111
V2.2 GHz
p3112
V1 TB
p3113
tp3114
sV261232198133
p3115
(V15.6"
p3116
V8 GB
p3117
V2.50 GHz
p3118
V500 GB
p3119
tp3120
sV251269876589
p3121
(V17.3"
p3122
V8 GB
p3123
V2.30 GHz
p3124
V500 GB
p3125
tp3126
sV310692725994
p3127
(V14.1"
p3128
V2 GB
p3129
V2.4 GHz
p3130
V160 GB
p3131
tp3132
sV230999404787
p3133
(V13.3"
p3134
V2 GB
p3135
V2.26 GHz
p3136
V120 GB
p3137
tp3138
sV111102455397
p3139
(V15.4"
p3140
V4.0 GB
p3141
V2.4 GHz
p3142
V160 GB
p3143
tp3144
sV111100585402
p3145
(V15.4"
p3146
V2.0 GB
p3147
V2.4 GHz
p3148
VNOT INCLUDED
p3149
tp3150
sV251290005335
p3151
(V15.4"
p3152
V2 gig
p3153
V2 GHz
p3154
V120 GB
p3155
tp3156
sV290934373246
p3157
(V14
p3158
V8 GB
p3159
V2.60 GHz
p3160
V320 GB
p3161
tp3162
sV111089357405
p3163
(V14"
p3164
V6 GB
p3165
V1.7 GHz
p3166
V500 GB
p3167
tp3168
sV290884524387
p3169
(V14.1"
p3170
V4 GB
p3171
V2.40 GHz
p3172
V320 GB
p3173
tp3174
sV251288701528
p3175
(V15.6"
p3176
V4 GB
p3177
V2.4 GHz
p3178
V500 GB
p3179
tp3180
sV171062399904
p3181
(V15.6"
p3182
V3 GB
p3183
V2.2 GHz
p3184
V250 GB
p3185
tp3186
sV151067599911
p3187
(V14.1"
p3188
V2 GB
p3189
V2.26 GHz
p3190
V160 GB
p3191
tp3192
sV190859346304
p3193
(V17.3"
p3194
V6 GB
p3195
V2.40 GHz
p3196
V750 GB
p3197
tp3198
sV310691171868
p3199
(V15.4"
p3200
V2 GB
p3201
V3.06 GHz
p3202
V80 GB
p3203
tp3204
sV380663491341
p3205
(V12.1"
p3206
V2 GB
p3207
V1.20 GHz
p3208
V80 GB
p3209
tp3210
sV181161323607
p3211
(V15.6"
p3212
V4 GB
p3213
V2.30 GHz
p3214
V320 GB
p3215
tp3216
sV111100635388
p3217
(V15.4"
p3218
V1.0 GB
p3219
V2.0 GHz
p3220
VNOT INCLUDED
p3221
tp3222
sV251293082768
p3223
(V14"
p3224
V8 GB
p3225
V3.20 GHz
p3226
V256 GB
p3227
tp3228
sV271218869213
p3229
(V17.3"
p3230
V6 GB
p3231
V2.6 GHz
p3232
V750 GB
p3233
tp3234
sV251293313884
p3235
(V14"
p3236
V8GB
p3237
V2.5GHz
p3238
V300
p3239
tp3240
sV200936193032
p3241
(V13.3 touch
p3242
V4000
p3243
V1.7
p3244
V128 SSD
p3245
tp3246
sV321102976477
p3247
(V15.6"
p3248
V4 GB
p3249
V2.10 GHz
p3250
V500 GB
p3251
tp3252
sV290934813026
p3253
(V13.3"
p3254
V4 GB
p3255
V2.40 GHz
p3256
V320 GB
p3257
tp3258
sV310691046525
p3259
(V15.4"
p3260
V8 GB
p3261
V2.80 GHz
p3262
V250 GB
p3263
tp3264
sV200934863530
p3265
(V12.1"
p3266
V2 GB
p3267
V1.33 GHz
p3268
V80 GB
p3269
tp3270
sV261233809645
p3271
(V15.6"
p3272
V4 GB
p3273
V2.4 GHz
p3274
V500 GB
p3275
tp3276
sV290934081396
p3277
(V15.6"
p3278
V4 GB
p3279
V2.66 GHz
p3280
V320 GB
p3281
tp3282
sV190855251447
p3283
(V14"
p3284
V4 GB
p3285
V2.66 GHz
p3286
V320 GB
p3287
tp3288
sV181160551579
p3289
(V14.1"
p3290
V1 GB
p3291
V1.83 GHz
p3292
V80 GB
p3293
tp3294
sV300899546778
p3295
(V17.3"
p3296
V4 GB
p3297
V2.30 GHz
p3298
V500 GB
p3299
tp3300
sV171015387815
p3301
(V15.6"
p3302
V6 GB
p3303
V2.40 GHz
p3304
V750 GB
p3305
tp3306
sV300921567348
p3307
(V14.1"
p3308
V4 GB
p3309
V2.40 GHz
p3310
V160 GB
p3311
tp3312
sV290883840786
p3313
(V14.1"
p3314
V4 GB
p3315
V1.66 GHz
p3316
V500 GB
p3317
tp3318
sV390613114820
p3319
(V11.6"
p3320
V2 GB
p3321
V1.7 GHz
p3322
V16 GB
p3323
tp3324
sV271226057155
p3325
(V15.6"
p3326
V4 GB
p3327
V2.67 GHz
p3328
V320 GB
p3329
tp3330
sV360679116293
p3331
(V14"
p3332
V1.0 GB
p3333
V2.0 GHz
p3334
VNOT INCLUDED
p3335
tp3336
sV140997263676
p3337
(V17.3"
p3338
V2 GB
p3339
V2.13 GHz
p3340
V250 GB
p3341
tp3342
sV271226595967
p3343
(V12.5"
p3344
V4 GB
p3345
V1.7 GHz
p3346
V500 GB
p3347
tp3348
sV111102755342
p3349
(V16"
p3350
V4 GB
p3351
V2.26GHz
p3352
V500 GB
p3353
tp3354
sV181162011613
p3355
(V14.1"
p3356
V2 GB
p3357
V2.53 GHz
p3358
V160 GB
p3359
tp3360
sV360679114751
p3361
(V15.6"
p3362
V4 GB
p3363
V2.30 GHz
p3364
V500 GB
p3365
tp3366
sV161046059820
p3367
(V15.6"
p3368
V8 GB
p3369
V2.90 GHz
p3370
V240 GB
p3371
tp3372
sV261233793118
p3373
(V15.6"
p3374
V6 GB
p3375
V2.4 GHz
p3376
V640 GB
p3377
tp3378
sV181161718097
p3379
(V14.1"
p3380
V4 GB
p3381
V2.53 GHz
p3382
V160 GB
p3383
tp3384
sV230999455637
p3385
(V12.1"
p3386
V2 GB
p3387
V2.4 GHz
p3388
V250 GB
p3389
tp3390
sV190858153353
p3391
(V15.4"
p3392
V1 GB
p3393
V2 GHz
p3394
V80 GB
p3395
tp3396
sV181159660275
p3397
(V17.3"
p3398
V6 GB
p3399
V2.4 GHz
p3400
V750 GB
p3401
tp3402
sV171041807645
p3403
(V15.6"
p3404
V4 GB
p3405
V1.60 GHz
p3406
V250 GB
p3407
tp3408
sV111098508527
p3409
(V15.6
p3410
V8000
p3411
V2.3-3.4
p3412
V128 GB
p3413
tp3414
sV290926811345
p3415
(V15.6"
p3416
V4 GB
p3417
V1.9 GHz
p3418
V500 GB
p3419
tp3420
sV251272710961
p3421
(V15.6"
p3422
V6 GB
p3423
V1.7 GHz
p3424
V500 GB
p3425
tp3426
sV360679103666
p3427
(V15.4"
p3428
V2.0 GB
p3429
V2.4 GHz
p3430
VNOT INCLUDED
p3431
tp3432
sV121129212221
p3433
(V14.1"
p3434
V2 GB
p3435
V1833MHZ
p3436
V80g
p3437
tp3438
sV330942878565
p3439
(V15.6"
p3440
V4 GB
p3441
V2.40 GHz
p3442
V500 GB
p3443
tp3444
sV360676697726
p3445
(V11.6"
p3446
V2 GB
p3447
V1.7 GHz
p3448
V16 GB
p3449
tp3450
sV390613635416
p3451
(V14"
p3452
V4 GB
p3453
V2.53 GHz
p3454
V320 GB
p3455
tp3456
sV121130560171
p3457
(V15.6"
p3458
V4 GB
p3459
V2.70 GHz with Turbo
p3460
V500 GB
p3461
tp3462
sV281123497293
p3463
(V14
p3464
V8 GB
p3465
V2.2 GHz / 3.1GHZ with Turbo Boost
p3466
V320 GB
p3467
tp3468
sV310691108146
p3469
(V14.1"
p3470
V2 GB
p3471
V2.26 GHz
p3472
V160 GB
p3473
tp3474
sV271224681774
p3475
(V15.6"
p3476
V4 GB
p3477
V2.2 GHz
p3478
V320 GB
p3479
tp3480
sV251292078155
p3481
(V17.3"
p3482
V16 GB
p3483
V2.93 GHz
p3484
V1.5 TB
p3485
tp3486
sV261233969036
p3487
(V15.6"
p3488
V4 GB
p3489
V2.40 GHz
p3490
V500 GB
p3491
tp3492
sV141001468390
p3493
(V14.1"
p3494
V2gb
p3495
V800 MHz
p3496
V80GB
p3497
tp3498
sV251292674374
p3499
(V17.3"
p3500
V8 GB
p3501
V1.9 GHz
p3502
V500 GB
p3503
tp3504
sV121128820801
p3505
(V14.1"
p3506
V2 GB
p3507
V2.20 GHz
p3508
V120 GB
p3509
tp3510
sV151063630352
p3511
(V16"
p3512
V4 GB
p3513
V1.73 GHz
p3514
V640 GB
p3515
tp3516
sV321102563470
p3517
(V15.6"
p3518
V4 GB
p3519
V2.5 GHz
p3520
V500 GB
p3521
tp3522
sV151067015327
p3523
(V14.1"
p3524
V2 GB
p3525
V2.26 GHz
p3526
V80 GB
p3527
tp3528
sV231001517386
p3529
(V13.3"
p3530
V8 GB
p3531
V3.00 GHz
p3532
V128 GB
p3533
tp3534
sV230999419894
p3535
(V14.1"
p3536
V2 GB
p3537
V1.73 GHz
p3538
V60 GB
p3539
tp3540
sV200935496089
p3541
(V11.6"
p3542
V4 GB
p3543
V1.8 GHz
p3544
V500 GB
p3545
tp3546
sV111099981762
p3547
(V15.6"
p3548
V8 GB
p3549
V2.3 GHz
p3550
V1 TB
p3551
tp3552
sV111102450080
p3553
(V15.4"
p3554
V4.0 GB
p3555
V2.4 GHz
p3556
V320 GB
p3557
tp3558
sV261232645252
p3559
(V13.3"
p3560
V4 GB
p3561
V1.6 GHz
p3562
V128 GB
p3563
tp3564
sV140997204114
p3565
(V13.3"
p3566
V128 MB
p3567
V366 MHz
p3568
V6 GB
p3569
tp3570
sV271226679564
p3571
(V17.3"
p3572
V6 GB
p3573
V1.9 GHz
p3574
V500 GB
p3575
tp3576
sV190859188731
p3577
(V14.1"
p3578
V2 GB
p3579
V2.80 GHz
p3580
V160 GB
p3581
tp3582
sV221243504009
p3583
(V16"
p3584
V4 GB
p3585
V2.26 GHz
p3586
V500 GB
p3587
tp3588
sV261227196089
p3589
(V15.6"
p3590
V4 GB
p3591
V1.8 GHz
p3592
V320 GB
p3593
tp3594
sV221229804444
p3595
(V17.3"
p3596
V8 GB
p3597
V2.90 GHz
p3598
V1 TB
p3599
tp3600
sV330941073267
p3601
(V12.1"
p3602
V4 GB
p3603
V2.40 GHz
p3604
V320 GB
p3605
tp3606
sV271221096494
p3607
(V15.6"
p3608
V4 GB
p3609
V2.4 GHz
p3610
V500 GB
p3611
tp3612
sV181127372019
p3613
(V17.3"
p3614
V4 GB
p3615
V2.7 GHz With Turbo Core Up To 3.2 GHz
p3616
V500 GB
p3617
tp3618
sV171060913949
p3619
(V15.4"
p3620
V1 GB
p3621
V1.80 GHz
p3622
V80 GB
p3623
tp3624
sV171060850117
p3625
(V14"
p3626
V2.0 GB
p3627
V2.0 GHz
p3628
VNOT INCLUDED
p3629
tp3630
sV171060712789
p3631
(V14"
p3632
V1.0 GB
p3633
V2.66 GHz
p3634
VNOT INCLUDED
p3635
tp3636
s.